
bininst2.exe:     file format pei-x86-64


Disassembly of section .text:

0000000140001000 <.text>:
   140001000:	40 53                	rex push rbx
   140001002:	48 83 ec 20          	sub    rsp,0x20
   140001006:	48 8b d9             	mov    rbx,rcx
   140001009:	ff 15 09 50 00 00    	call   QWORD PTR [rip+0x5009]        # 0x140006018
   14000100f:	4c 8b c3             	mov    r8,rbx
   140001012:	33 d2                	xor    edx,edx
   140001014:	48 8b c8             	mov    rcx,rax
   140001017:	48 83 c4 20          	add    rsp,0x20
   14000101b:	5b                   	pop    rbx
   14000101c:	48 ff 25 e5 4f 00 00 	rex.W jmp QWORD PTR [rip+0x4fe5]        # 0x140006008
   140001023:	cc                   	int3
   140001024:	cc                   	int3
   140001025:	cc                   	int3
   140001026:	cc                   	int3
   140001027:	cc                   	int3
   140001028:	cc                   	int3
   140001029:	cc                   	int3
   14000102a:	cc                   	int3
   14000102b:	cc                   	int3
   14000102c:	cc                   	int3
   14000102d:	cc                   	int3
   14000102e:	cc                   	int3
   14000102f:	cc                   	int3
   140001030:	48 89 5c 24 10       	mov    QWORD PTR [rsp+0x10],rbx
   140001035:	4c 8b 49 08          	mov    r9,QWORD PTR [rcx+0x8]
   140001039:	4c 8b d1             	mov    r10,rcx
   14000103c:	4d 3b 08             	cmp    r9,QWORD PTR [r8]
   14000103f:	4d 0f 43 08          	cmovae r9,QWORD PTR [r8]
   140001043:	4d 85 c9             	test   r9,r9
   140001046:	74 45                	je     0x14000108d
   140001048:	4c 8b 19             	mov    r11,QWORD PTR [rcx]
   14000104b:	c7 44 24 08 00 00 00 	mov    DWORD PTR [rsp+0x8],0x0
   140001052:	00 
   140001053:	48 63 44 24 08       	movsxd rax,DWORD PTR [rsp+0x8]
   140001058:	49 3b c1             	cmp    rax,r9
   14000105b:	73 29                	jae    0x140001086
   14000105d:	0f 1f 00             	nop    DWORD PTR [rax]
   140001060:	48 63 44 24 08       	movsxd rax,DWORD PTR [rsp+0x8]
   140001065:	48 63 4c 24 08       	movsxd rcx,DWORD PTR [rsp+0x8]
   14000106a:	42 0f b6 04 18       	movzx  eax,BYTE PTR [rax+r11*1]
   14000106f:	88 04 11             	mov    BYTE PTR [rcx+rdx*1],al
   140001072:	8b 44 24 08          	mov    eax,DWORD PTR [rsp+0x8]
   140001076:	ff c0                	inc    eax
   140001078:	89 44 24 08          	mov    DWORD PTR [rsp+0x8],eax
   14000107c:	48 63 44 24 08       	movsxd rax,DWORD PTR [rsp+0x8]
   140001081:	49 3b c1             	cmp    rax,r9
   140001084:	72 da                	jb     0x140001060
   140001086:	4d 01 0a             	add    QWORD PTR [r10],r9
   140001089:	4d 29 4a 08          	sub    QWORD PTR [r10+0x8],r9
   14000108d:	48 8b 5c 24 10       	mov    rbx,QWORD PTR [rsp+0x10]
   140001092:	33 c0                	xor    eax,eax
   140001094:	4d 89 08             	mov    QWORD PTR [r8],r9
   140001097:	c3                   	ret
   140001098:	cc                   	int3
   140001099:	cc                   	int3
   14000109a:	cc                   	int3
   14000109b:	cc                   	int3
   14000109c:	cc                   	int3
   14000109d:	cc                   	int3
   14000109e:	cc                   	int3
   14000109f:	cc                   	int3
   1400010a0:	40 53                	rex push rbx
   1400010a2:	48 83 ec 20          	sub    rsp,0x20
   1400010a6:	48 8b d9             	mov    rbx,rcx
   1400010a9:	ff 15 69 4f 00 00    	call   QWORD PTR [rip+0x4f69]        # 0x140006018
   1400010af:	4c 8b c3             	mov    r8,rbx
   1400010b2:	ba 08 00 00 00       	mov    edx,0x8
   1400010b7:	48 8b c8             	mov    rcx,rax
   1400010ba:	48 83 c4 20          	add    rsp,0x20
   1400010be:	5b                   	pop    rbx
   1400010bf:	48 ff 25 3a 4f 00 00 	rex.W jmp QWORD PTR [rip+0x4f3a]        # 0x140006000
   1400010c6:	cc                   	int3
   1400010c7:	cc                   	int3
   1400010c8:	cc                   	int3
   1400010c9:	cc                   	int3
   1400010ca:	cc                   	int3
   1400010cb:	cc                   	int3
   1400010cc:	cc                   	int3
   1400010cd:	cc                   	int3
   1400010ce:	cc                   	int3
   1400010cf:	cc                   	int3
   1400010d0:	c7 44 24 08 00 00 00 	mov    DWORD PTR [rsp+0x8],0x0
   1400010d7:	00 
   1400010d8:	4c 8b d1             	mov    r10,rcx
   1400010db:	48 63 44 24 08       	movsxd rax,DWORD PTR [rsp+0x8]
   1400010e0:	49 3b c0             	cmp    rax,r8
   1400010e3:	73 31                	jae    0x140001116
   1400010e5:	66 66 66 0f 1f 84 00 	data16 data16 nop WORD PTR [rax+rax*1+0x0]
   1400010ec:	00 00 00 00 
   1400010f0:	48 63 44 24 08       	movsxd rax,DWORD PTR [rsp+0x8]
   1400010f5:	48 63 4c 24 08       	movsxd rcx,DWORD PTR [rsp+0x8]
   1400010fa:	0f b6 04 10          	movzx  eax,BYTE PTR [rax+rdx*1]
   1400010fe:	42 88 04 11          	mov    BYTE PTR [rcx+r10*1],al
   140001102:	8b 44 24 08          	mov    eax,DWORD PTR [rsp+0x8]
   140001106:	ff c0                	inc    eax
   140001108:	89 44 24 08          	mov    DWORD PTR [rsp+0x8],eax
   14000110c:	48 63 44 24 08       	movsxd rax,DWORD PTR [rsp+0x8]
   140001111:	49 3b c0             	cmp    rax,r8
   140001114:	72 da                	jb     0x1400010f0
   140001116:	49 8b c2             	mov    rax,r10
   140001119:	c3                   	ret
   14000111a:	cc                   	int3
   14000111b:	cc                   	int3
   14000111c:	cc                   	int3
   14000111d:	cc                   	int3
   14000111e:	cc                   	int3
   14000111f:	cc                   	int3
   140001120:	48 83 ec 08          	sub    rsp,0x8
   140001124:	4c 8b c9             	mov    r9,rcx
   140001127:	4d 85 c0             	test   r8,r8
   14000112a:	74 13                	je     0x14000113f
   14000112c:	48 89 3c 24          	mov    QWORD PTR [rsp],rdi
   140001130:	48 8b f9             	mov    rdi,rcx
   140001133:	49 8b c8             	mov    rcx,r8
   140001136:	0f b6 c2             	movzx  eax,dl
   140001139:	f3 aa                	rep stos BYTE PTR es:[rdi],al
   14000113b:	48 8b 3c 24          	mov    rdi,QWORD PTR [rsp]
   14000113f:	49 8b c1             	mov    rax,r9
   140001142:	48 83 c4 08          	add    rsp,0x8
   140001146:	c3                   	ret
   140001147:	cc                   	int3
   140001148:	cc                   	int3
   140001149:	cc                   	int3
   14000114a:	cc                   	int3
   14000114b:	cc                   	int3
   14000114c:	cc                   	int3
   14000114d:	cc                   	int3
   14000114e:	cc                   	int3
   14000114f:	cc                   	int3
   140001150:	48 89 5c 24 10       	mov    QWORD PTR [rsp+0x10],rbx
   140001155:	48 89 74 24 18       	mov    QWORD PTR [rsp+0x18],rsi
   14000115a:	57                   	push   rdi
   14000115b:	48 83 ec 20          	sub    rsp,0x20
   14000115f:	49 8b d8             	mov    rbx,r8
   140001162:	48 8b f2             	mov    rsi,rdx
   140001165:	48 8b f9             	mov    rdi,rcx
   140001168:	4d 85 c0             	test   r8,r8
   14000116b:	74 5d                	je     0x1400011ca
   14000116d:	48 8b 51 18          	mov    rdx,QWORD PTR [rcx+0x18]
   140001171:	48 8b 49 10          	mov    rcx,QWORD PTR [rcx+0x10]
   140001175:	48 03 d3             	add    rdx,rbx
   140001178:	e8 63 00 00 00       	call   0x1400011e0
   14000117d:	4c 8b 47 18          	mov    r8,QWORD PTR [rdi+0x18]
   140001181:	48 89 47 10          	mov    QWORD PTR [rdi+0x10],rax
   140001185:	4c 03 c0             	add    r8,rax
   140001188:	c7 44 24 30 00 00 00 	mov    DWORD PTR [rsp+0x30],0x0
   14000118f:	00 
   140001190:	48 63 44 24 30       	movsxd rax,DWORD PTR [rsp+0x30]
   140001195:	48 3b c3             	cmp    rax,rbx
   140001198:	73 2c                	jae    0x1400011c6
   14000119a:	66 0f 1f 44 00 00    	nop    WORD PTR [rax+rax*1+0x0]
   1400011a0:	48 63 44 24 30       	movsxd rax,DWORD PTR [rsp+0x30]
   1400011a5:	48 63 4c 24 30       	movsxd rcx,DWORD PTR [rsp+0x30]
   1400011aa:	0f b6 04 30          	movzx  eax,BYTE PTR [rax+rsi*1]
   1400011ae:	42 88 04 01          	mov    BYTE PTR [rcx+r8*1],al
   1400011b2:	8b 44 24 30          	mov    eax,DWORD PTR [rsp+0x30]
   1400011b6:	ff c0                	inc    eax
   1400011b8:	89 44 24 30          	mov    DWORD PTR [rsp+0x30],eax
   1400011bc:	48 63 44 24 30       	movsxd rax,DWORD PTR [rsp+0x30]
   1400011c1:	48 3b c3             	cmp    rax,rbx
   1400011c4:	72 da                	jb     0x1400011a0
   1400011c6:	48 01 5f 18          	add    QWORD PTR [rdi+0x18],rbx
   1400011ca:	48 8b 74 24 40       	mov    rsi,QWORD PTR [rsp+0x40]
   1400011cf:	48 8b c3             	mov    rax,rbx
   1400011d2:	48 8b 5c 24 38       	mov    rbx,QWORD PTR [rsp+0x38]
   1400011d7:	48 83 c4 20          	add    rsp,0x20
   1400011db:	5f                   	pop    rdi
   1400011dc:	c3                   	ret
   1400011dd:	cc                   	int3
   1400011de:	cc                   	int3
   1400011df:	cc                   	int3
   1400011e0:	48 89 74 24 18       	mov    QWORD PTR [rsp+0x18],rsi
   1400011e5:	57                   	push   rdi
   1400011e6:	48 83 ec 20          	sub    rsp,0x20
   1400011ea:	48 8b f2             	mov    rsi,rdx
   1400011ed:	48 8b f9             	mov    rdi,rcx
   1400011f0:	48 85 d2             	test   rdx,rdx
   1400011f3:	75 0d                	jne    0x140001202
   1400011f5:	33 c0                	xor    eax,eax
   1400011f7:	48 8b 74 24 40       	mov    rsi,QWORD PTR [rsp+0x40]
   1400011fc:	48 83 c4 20          	add    rsp,0x20
   140001200:	5f                   	pop    rdi
   140001201:	c3                   	ret
   140001202:	48 85 ff             	test   rdi,rdi
   140001205:	75 20                	jne    0x140001227
   140001207:	ff 15 0b 4e 00 00    	call   QWORD PTR [rip+0x4e0b]        # 0x140006018
   14000120d:	4c 8b c6             	mov    r8,rsi
   140001210:	8d 57 08             	lea    edx,[rdi+0x8]
   140001213:	48 8b c8             	mov    rcx,rax
   140001216:	48 8b 74 24 40       	mov    rsi,QWORD PTR [rsp+0x40]
   14000121b:	48 83 c4 20          	add    rsp,0x20
   14000121f:	5f                   	pop    rdi
   140001220:	48 ff 25 d9 4d 00 00 	rex.W jmp QWORD PTR [rip+0x4dd9]        # 0x140006000
   140001227:	48 89 5c 24 30       	mov    QWORD PTR [rsp+0x30],rbx
   14000122c:	ff 15 e6 4d 00 00    	call   QWORD PTR [rip+0x4de6]        # 0x140006018
   140001232:	4c 8b c7             	mov    r8,rdi
   140001235:	33 d2                	xor    edx,edx
   140001237:	48 8b c8             	mov    rcx,rax
   14000123a:	ff 15 d0 4d 00 00    	call   QWORD PTR [rip+0x4dd0]        # 0x140006010
   140001240:	48 8b d8             	mov    rbx,rax
   140001243:	48 3b c6             	cmp    rax,rsi
   140001246:	75 13                	jne    0x14000125b
   140001248:	48 8b 5c 24 30       	mov    rbx,QWORD PTR [rsp+0x30]
   14000124d:	48 8b c7             	mov    rax,rdi
   140001250:	48 8b 74 24 40       	mov    rsi,QWORD PTR [rsp+0x40]
   140001255:	48 83 c4 20          	add    rsp,0x20
   140001259:	5f                   	pop    rdi
   14000125a:	c3                   	ret
   14000125b:	ff 15 b7 4d 00 00    	call   QWORD PTR [rip+0x4db7]        # 0x140006018
   140001261:	4c 8b c6             	mov    r8,rsi
   140001264:	ba 08 00 00 00       	mov    edx,0x8
   140001269:	48 8b c8             	mov    rcx,rax
   14000126c:	ff 15 8e 4d 00 00    	call   QWORD PTR [rip+0x4d8e]        # 0x140006000
   140001272:	c7 44 24 38 00 00 00 	mov    DWORD PTR [rsp+0x38],0x0
   140001279:	00 
   14000127a:	48 8b f0             	mov    rsi,rax
   14000127d:	48 63 44 24 38       	movsxd rax,DWORD PTR [rsp+0x38]
   140001282:	48 3b c3             	cmp    rax,rbx
   140001285:	73 2e                	jae    0x1400012b5
   140001287:	66 0f 1f 84 00 00 00 	nop    WORD PTR [rax+rax*1+0x0]
   14000128e:	00 00 
   140001290:	48 63 44 24 38       	movsxd rax,DWORD PTR [rsp+0x38]
   140001295:	48 63 4c 24 38       	movsxd rcx,DWORD PTR [rsp+0x38]
   14000129a:	0f b6 04 38          	movzx  eax,BYTE PTR [rax+rdi*1]
   14000129e:	88 04 31             	mov    BYTE PTR [rcx+rsi*1],al
   1400012a1:	8b 44 24 38          	mov    eax,DWORD PTR [rsp+0x38]
   1400012a5:	ff c0                	inc    eax
   1400012a7:	89 44 24 38          	mov    DWORD PTR [rsp+0x38],eax
   1400012ab:	48 63 44 24 38       	movsxd rax,DWORD PTR [rsp+0x38]
   1400012b0:	48 3b c3             	cmp    rax,rbx
   1400012b3:	72 db                	jb     0x140001290
   1400012b5:	48 c1 eb 02          	shr    rbx,0x2
   1400012b9:	48 85 db             	test   rbx,rbx
   1400012bc:	74 11                	je     0x1400012cf
   1400012be:	48 c1 e3 02          	shl    rbx,0x2
   1400012c2:	33 d2                	xor    edx,edx
   1400012c4:	4c 8b c3             	mov    r8,rbx
   1400012c7:	48 8b cf             	mov    rcx,rdi
   1400012ca:	e8 51 fe ff ff       	call   0x140001120
   1400012cf:	ff 15 43 4d 00 00    	call   QWORD PTR [rip+0x4d43]        # 0x140006018
   1400012d5:	4c 8b c7             	mov    r8,rdi
   1400012d8:	33 d2                	xor    edx,edx
   1400012da:	48 8b c8             	mov    rcx,rax
   1400012dd:	ff 15 25 4d 00 00    	call   QWORD PTR [rip+0x4d25]        # 0x140006008
   1400012e3:	48 8b 5c 24 30       	mov    rbx,QWORD PTR [rsp+0x30]
   1400012e8:	48 8b c6             	mov    rax,rsi
   1400012eb:	48 8b 74 24 40       	mov    rsi,QWORD PTR [rsp+0x40]
   1400012f0:	48 83 c4 20          	add    rsp,0x20
   1400012f4:	5f                   	pop    rdi
   1400012f5:	c3                   	ret
   1400012f6:	cc                   	int3
   1400012f7:	cc                   	int3
   1400012f8:	cc                   	int3
   1400012f9:	cc                   	int3
   1400012fa:	cc                   	int3
   1400012fb:	cc                   	int3
   1400012fc:	cc                   	int3
   1400012fd:	cc                   	int3
   1400012fe:	cc                   	int3
   1400012ff:	cc                   	int3
   140001300:	48 89 5c 24 08       	mov    QWORD PTR [rsp+0x8],rbx
   140001305:	48 89 74 24 18       	mov    QWORD PTR [rsp+0x18],rsi
   14000130a:	48 89 7c 24 20       	mov    QWORD PTR [rsp+0x20],rdi
   14000130f:	41 56                	push   r14
   140001311:	48 83 ec 50          	sub    rsp,0x50
   140001315:	4d 8b f1             	mov    r14,r9
   140001318:	49 8b f8             	mov    rdi,r8
   14000131b:	48 8b da             	mov    rbx,rdx
   14000131e:	8b f1                	mov    esi,ecx
   140001320:	e8 7b 0f 00 00       	call   0x1400022a0
   140001325:	33 c9                	xor    ecx,ecx
   140001327:	89 74 24 28          	mov    DWORD PTR [rsp+0x28],esi
   14000132b:	48 89 4c 24 40       	mov    QWORD PTR [rsp+0x40],rcx
   140001330:	4c 8d 0d 19 fe ff ff 	lea    r9,[rip+0xfffffffffffffe19]        # 0x140001150
   140001337:	48 89 4c 24 48       	mov    QWORD PTR [rsp+0x48],rcx
   14000133c:	4c 8d 44 24 30       	lea    r8,[rsp+0x30]
   140001341:	48 8d 4c 24 30       	lea    rcx,[rsp+0x30]
   140001346:	48 89 44 24 68       	mov    QWORD PTR [rsp+0x68],rax
   14000134b:	48 89 4c 24 20       	mov    QWORD PTR [rsp+0x20],rcx
   140001350:	48 8d 15 d9 fc ff ff 	lea    rdx,[rip+0xfffffffffffffcd9]        # 0x140001030
   140001357:	48 8b c8             	mov    rcx,rax
   14000135a:	48 89 5c 24 30       	mov    QWORD PTR [rsp+0x30],rbx
   14000135f:	48 89 7c 24 38       	mov    QWORD PTR [rsp+0x38],rdi
   140001364:	e8 b7 0f 00 00       	call   0x140002320
   140001369:	8b f8                	mov    edi,eax
   14000136b:	85 c0                	test   eax,eax
   14000136d:	74 2c                	je     0x14000139b
   14000136f:	48 8b 5c 24 40       	mov    rbx,QWORD PTR [rsp+0x40]
   140001374:	48 85 db             	test   rbx,rbx
   140001377:	74 14                	je     0x14000138d
   140001379:	ff 15 99 4c 00 00    	call   QWORD PTR [rip+0x4c99]        # 0x140006018
   14000137f:	4c 8b c3             	mov    r8,rbx
   140001382:	33 d2                	xor    edx,edx
   140001384:	48 8b c8             	mov    rcx,rax
   140001387:	ff 15 7b 4c 00 00    	call   QWORD PTR [rip+0x4c7b]        # 0x140006008
   14000138d:	48 8d 4c 24 68       	lea    rcx,[rsp+0x68]
   140001392:	e8 59 0f 00 00       	call   0x1400022f0
   140001397:	8b c7                	mov    eax,edi
   140001399:	eb 24                	jmp    0x1400013bf
   14000139b:	48 8d 4c 24 68       	lea    rcx,[rsp+0x68]
   1400013a0:	e8 4b 0f 00 00       	call   0x1400022f0
   1400013a5:	48 8b 44 24 40       	mov    rax,QWORD PTR [rsp+0x40]
   1400013aa:	48 8b 8c 24 80 00 00 	mov    rcx,QWORD PTR [rsp+0x80]
   1400013b1:	00 
   1400013b2:	49 89 06             	mov    QWORD PTR [r14],rax
   1400013b5:	48 8b 44 24 48       	mov    rax,QWORD PTR [rsp+0x48]
   1400013ba:	48 89 01             	mov    QWORD PTR [rcx],rax
   1400013bd:	33 c0                	xor    eax,eax
   1400013bf:	48 8b 5c 24 60       	mov    rbx,QWORD PTR [rsp+0x60]
   1400013c4:	48 8b 74 24 70       	mov    rsi,QWORD PTR [rsp+0x70]
   1400013c9:	48 8b 7c 24 78       	mov    rdi,QWORD PTR [rsp+0x78]
   1400013ce:	48 83 c4 50          	add    rsp,0x50
   1400013d2:	41 5e                	pop    r14
   1400013d4:	c3                   	ret
   1400013d5:	cc                   	int3
   1400013d6:	cc                   	int3
   1400013d7:	cc                   	int3
   1400013d8:	cc                   	int3
   1400013d9:	cc                   	int3
   1400013da:	cc                   	int3
   1400013db:	cc                   	int3
   1400013dc:	cc                   	int3
   1400013dd:	cc                   	int3
   1400013de:	cc                   	int3
   1400013df:	cc                   	int3
   1400013e0:	0f b6 01             	movzx  eax,BYTE PTR [rcx]
   1400013e3:	44 0f b6 02          	movzx  r8d,BYTE PTR [rdx]
   1400013e7:	41 3a c0             	cmp    al,r8b
   1400013ea:	75 19                	jne    0x140001405
   1400013ec:	48 2b ca             	sub    rcx,rdx
   1400013ef:	90                   	nop
   1400013f0:	84 c0                	test   al,al
   1400013f2:	74 24                	je     0x140001418
   1400013f4:	0f b6 44 11 01       	movzx  eax,BYTE PTR [rcx+rdx*1+0x1]
   1400013f9:	48 ff c2             	inc    rdx
   1400013fc:	44 0f b6 02          	movzx  r8d,BYTE PTR [rdx]
   140001400:	41 3a c0             	cmp    al,r8b
   140001403:	74 eb                	je     0x1400013f0
   140001405:	41 3a c0             	cmp    al,r8b
   140001408:	b9 01 00 00 00       	mov    ecx,0x1
   14000140d:	ba ff ff ff ff       	mov    edx,0xffffffff
   140001412:	0f 4c ca             	cmovl  ecx,edx
   140001415:	8b c1                	mov    eax,ecx
   140001417:	c3                   	ret
   140001418:	33 c0                	xor    eax,eax
   14000141a:	c3                   	ret
   14000141b:	cc                   	int3
   14000141c:	cc                   	int3
   14000141d:	cc                   	int3
   14000141e:	cc                   	int3
   14000141f:	cc                   	int3
   140001420:	45 8d 48 ff          	lea    r9d,[r8-0x1]
   140001424:	45 85 c9             	test   r9d,r9d
   140001427:	78 20                	js     0x140001449
   140001429:	0f 1f 80 00 00 00 00 	nop    DWORD PTR [rax+0x0]
   140001430:	0f be 02             	movsx  eax,BYTE PTR [rdx]
   140001433:	48 8d 52 01          	lea    rdx,[rdx+0x1]
   140001437:	66 89 01             	mov    WORD PTR [rcx],ax
   14000143a:	48 8d 49 02          	lea    rcx,[rcx+0x2]
   14000143e:	66 85 c0             	test   ax,ax
   140001441:	74 10                	je     0x140001453
   140001443:	41 83 e9 01          	sub    r9d,0x1
   140001447:	79 e7                	jns    0x140001430
   140001449:	49 63 c1             	movsxd rax,r9d
   14000144c:	4c 2b c0             	sub    r8,rax
   14000144f:	49 8b c0             	mov    rax,r8
   140001452:	c3                   	ret
   140001453:	49 63 c1             	movsxd rax,r9d
   140001456:	4c 2b c0             	sub    r8,rax
   140001459:	49 8d 40 ff          	lea    rax,[r8-0x1]
   14000145d:	c3                   	ret
   14000145e:	cc                   	int3
   14000145f:	cc                   	int3
   140001460:	48 89 5c 24 08       	mov    QWORD PTR [rsp+0x8],rbx
   140001465:	57                   	push   rdi
   140001466:	48 83 ec 20          	sub    rsp,0x20
   14000146a:	48 8b f9             	mov    rdi,rcx
   14000146d:	33 db                	xor    ebx,ebx
   14000146f:	e8 cc 00 00 00       	call   0x140001540
   140001474:	48 8b c8             	mov    rcx,rax
   140001477:	48 85 c0             	test   rax,rax
   14000147a:	74 20                	je     0x14000149c
   14000147c:	8b c3                	mov    eax,ebx
   14000147e:	66 90                	xchg   ax,ax
   140001480:	80 3c 38 2e          	cmp    BYTE PTR [rax+rdi*1],0x2e
   140001484:	74 14                	je     0x14000149a
   140001486:	ff c3                	inc    ebx
   140001488:	8b c3                	mov    eax,ebx
   14000148a:	48 3b c1             	cmp    rax,rcx
   14000148d:	72 f1                	jb     0x140001480
   14000148f:	48 8b 5c 24 30       	mov    rbx,QWORD PTR [rsp+0x30]
   140001494:	48 83 c4 20          	add    rsp,0x20
   140001498:	5f                   	pop    rdi
   140001499:	c3                   	ret
   14000149a:	8b c3                	mov    eax,ebx
   14000149c:	48 8b 5c 24 30       	mov    rbx,QWORD PTR [rsp+0x30]
   1400014a1:	48 83 c4 20          	add    rsp,0x20
   1400014a5:	5f                   	pop    rdi
   1400014a6:	c3                   	ret
   1400014a7:	cc                   	int3
   1400014a8:	cc                   	int3
   1400014a9:	cc                   	int3
   1400014aa:	cc                   	int3
   1400014ab:	cc                   	int3
   1400014ac:	cc                   	int3
   1400014ad:	cc                   	int3
   1400014ae:	cc                   	int3
   1400014af:	cc                   	int3
   1400014b0:	48 89 5c 24 08       	mov    QWORD PTR [rsp+0x8],rbx
   1400014b5:	57                   	push   rdi
   1400014b6:	48 83 ec 20          	sub    rsp,0x20
   1400014ba:	48 8b f9             	mov    rdi,rcx
   1400014bd:	33 db                	xor    ebx,ebx
   1400014bf:	e8 7c 00 00 00       	call   0x140001540
   1400014c4:	8b d3                	mov    edx,ebx
   1400014c6:	48 85 c0             	test   rax,rax
   1400014c9:	74 1b                	je     0x1400014e6
   1400014cb:	0f 1f 44 00 00       	nop    DWORD PTR [rax+rax*1+0x0]
   1400014d0:	0f be 0f             	movsx  ecx,BYTE PTR [rdi]
   1400014d3:	48 8d 7f 01          	lea    rdi,[rdi+0x1]
   1400014d7:	c1 cb 07             	ror    ebx,0x7
   1400014da:	ff c2                	inc    edx
   1400014dc:	03 d9                	add    ebx,ecx
   1400014de:	48 63 ca             	movsxd rcx,edx
   1400014e1:	48 3b c8             	cmp    rcx,rax
   1400014e4:	72 ea                	jb     0x1400014d0
   1400014e6:	8b c3                	mov    eax,ebx
   1400014e8:	48 8b 5c 24 30       	mov    rbx,QWORD PTR [rsp+0x30]
   1400014ed:	48 83 c4 20          	add    rsp,0x20
   1400014f1:	5f                   	pop    rdi
   1400014f2:	c3                   	ret
   1400014f3:	cc                   	int3
   1400014f4:	cc                   	int3
   1400014f5:	cc                   	int3
   1400014f6:	cc                   	int3
   1400014f7:	cc                   	int3
   1400014f8:	cc                   	int3
   1400014f9:	cc                   	int3
   1400014fa:	cc                   	int3
   1400014fb:	cc                   	int3
   1400014fc:	cc                   	int3
   1400014fd:	cc                   	int3
   1400014fe:	cc                   	int3
   1400014ff:	cc                   	int3
   140001500:	48 89 51 08          	mov    QWORD PTR [rcx+0x8],rdx
   140001504:	4c 8b c1             	mov    r8,rcx
   140001507:	48 85 d2             	test   rdx,rdx
   14000150a:	74 2a                	je     0x140001536
   14000150c:	48 c7 c0 ff ff ff ff 	mov    rax,0xffffffffffffffff
   140001513:	48 ff c0             	inc    rax
   140001516:	66 83 3c 42 00       	cmp    WORD PTR [rdx+rax*2],0x0
   14000151b:	75 f6                	jne    0x140001513
   14000151d:	b9 fc ff 00 00       	mov    ecx,0xfffc
   140001522:	03 c0                	add    eax,eax
   140001524:	3b c1                	cmp    eax,ecx
   140001526:	0f 47 c1             	cmova  eax,ecx
   140001529:	66 41 89 00          	mov    WORD PTR [r8],ax
   14000152d:	8d 48 02             	lea    ecx,[rax+0x2]
   140001530:	66 41 89 48 02       	mov    WORD PTR [r8+0x2],cx
   140001535:	c3                   	ret
   140001536:	33 c0                	xor    eax,eax
   140001538:	89 01                	mov    DWORD PTR [rcx],eax
   14000153a:	c3                   	ret
   14000153b:	cc                   	int3
   14000153c:	cc                   	int3
   14000153d:	cc                   	int3
   14000153e:	cc                   	int3
   14000153f:	cc                   	int3
   140001540:	80 39 00             	cmp    BYTE PTR [rcx],0x0
   140001543:	48 8b c1             	mov    rax,rcx
   140001546:	74 08                	je     0x140001550
   140001548:	48 ff c0             	inc    rax
   14000154b:	80 38 00             	cmp    BYTE PTR [rax],0x0
   14000154e:	75 f8                	jne    0x140001548
   140001550:	48 2b c1             	sub    rax,rcx
   140001553:	c3                   	ret
   140001554:	cc                   	int3
   140001555:	cc                   	int3
   140001556:	cc                   	int3
   140001557:	cc                   	int3
   140001558:	cc                   	int3
   140001559:	cc                   	int3
   14000155a:	cc                   	int3
   14000155b:	cc                   	int3
   14000155c:	cc                   	int3
   14000155d:	cc                   	int3
   14000155e:	cc                   	int3
   14000155f:	cc                   	int3
   140001560:	66 83 39 00          	cmp    WORD PTR [rcx],0x0
   140001564:	48 8b c1             	mov    rax,rcx
   140001567:	74 11                	je     0x14000157a
   140001569:	0f 1f 80 00 00 00 00 	nop    DWORD PTR [rax+0x0]
   140001570:	48 83 c0 02          	add    rax,0x2
   140001574:	66 83 38 00          	cmp    WORD PTR [rax],0x0
   140001578:	75 f6                	jne    0x140001570
   14000157a:	48 2b c1             	sub    rax,rcx
   14000157d:	48 d1 f8             	sar    rax,1
   140001580:	c3                   	ret
   140001581:	cc                   	int3
   140001582:	cc                   	int3
   140001583:	cc                   	int3
   140001584:	cc                   	int3
   140001585:	cc                   	int3
   140001586:	cc                   	int3
   140001587:	cc                   	int3
   140001588:	cc                   	int3
   140001589:	cc                   	int3
   14000158a:	cc                   	int3
   14000158b:	cc                   	int3
   14000158c:	cc                   	int3
   14000158d:	cc                   	int3
   14000158e:	cc                   	int3
   14000158f:	cc                   	int3
   140001590:	8d 41 9f             	lea    eax,[rcx-0x61]
   140001593:	3c 19                	cmp    al,0x19
   140001595:	77 04                	ja     0x14000159b
   140001597:	8d 41 e0             	lea    eax,[rcx-0x20]
   14000159a:	c3                   	ret
   14000159b:	0f b6 c1             	movzx  eax,cl
   14000159e:	c3                   	ret
   14000159f:	cc                   	int3
   1400015a0:	48 c1 ea 02          	shr    rdx,0x2
   1400015a4:	48 85 d2             	test   rdx,rdx
   1400015a7:	74 0e                	je     0x1400015b7
   1400015a9:	48 c1 e2 02          	shl    rdx,0x2
   1400015ad:	4c 8b c2             	mov    r8,rdx
   1400015b0:	33 d2                	xor    edx,edx
   1400015b2:	e9 69 fb ff ff       	jmp    0x140001120
   1400015b7:	c3                   	ret
   1400015b8:	cc                   	int3
   1400015b9:	cc                   	int3
   1400015ba:	cc                   	int3
   1400015bb:	cc                   	int3
   1400015bc:	cc                   	int3
   1400015bd:	cc                   	int3
   1400015be:	cc                   	int3
   1400015bf:	cc                   	int3
   1400015c0:	48 85 c9             	test   rcx,rcx
   1400015c3:	74 40                	je     0x140001605
   1400015c5:	48 85 d2             	test   rdx,rdx
   1400015c8:	74 3b                	je     0x140001605
   1400015ca:	66 83 39 00          	cmp    WORD PTR [rcx],0x0
   1400015ce:	74 0a                	je     0x1400015da
   1400015d0:	48 83 c1 02          	add    rcx,0x2
   1400015d4:	66 83 39 00          	cmp    WORD PTR [rcx],0x0
   1400015d8:	75 f6                	jne    0x1400015d0
   1400015da:	0f b7 02             	movzx  eax,WORD PTR [rdx]
   1400015dd:	66 85 c0             	test   ax,ax
   1400015e0:	74 1e                	je     0x140001600
   1400015e2:	48 2b d1             	sub    rdx,rcx
   1400015e5:	66 66 66 0f 1f 84 00 	data16 data16 nop WORD PTR [rax+rax*1+0x0]
   1400015ec:	00 00 00 00 
   1400015f0:	66 89 01             	mov    WORD PTR [rcx],ax
   1400015f3:	48 83 c1 02          	add    rcx,0x2
   1400015f7:	0f b7 04 0a          	movzx  eax,WORD PTR [rdx+rcx*1]
   1400015fb:	66 85 c0             	test   ax,ax
   1400015fe:	75 f0                	jne    0x1400015f0
   140001600:	33 c0                	xor    eax,eax
   140001602:	66 89 01             	mov    WORD PTR [rcx],ax
   140001605:	48 8b c1             	mov    rax,rcx
   140001608:	c3                   	ret
   140001609:	cc                   	int3
   14000160a:	cc                   	int3
   14000160b:	cc                   	int3
   14000160c:	cc                   	int3
   14000160d:	cc                   	int3
   14000160e:	cc                   	int3
   14000160f:	cc                   	int3
   140001610:	48 85 c9             	test   rcx,rcx
   140001613:	74 33                	je     0x140001648
   140001615:	48 85 d2             	test   rdx,rdx
   140001618:	74 2e                	je     0x140001648
   14000161a:	48 3b ca             	cmp    rcx,rdx
   14000161d:	74 29                	je     0x140001648
   14000161f:	44 0f b7 02          	movzx  r8d,WORD PTR [rdx]
   140001623:	48 8b c1             	mov    rax,rcx
   140001626:	66 45 85 c0          	test   r8w,r8w
   14000162a:	74 17                	je     0x140001643
   14000162c:	48 2b d1             	sub    rdx,rcx
   14000162f:	90                   	nop
   140001630:	66 44 89 00          	mov    WORD PTR [rax],r8w
   140001634:	48 83 c0 02          	add    rax,0x2
   140001638:	44 0f b7 04 02       	movzx  r8d,WORD PTR [rdx+rax*1]
   14000163d:	66 45 85 c0          	test   r8w,r8w
   140001641:	75 ed                	jne    0x140001630
   140001643:	33 d2                	xor    edx,edx
   140001645:	66 89 10             	mov    WORD PTR [rax],dx
   140001648:	48 8b c1             	mov    rax,rcx
   14000164b:	c3                   	ret
   14000164c:	cc                   	int3
   14000164d:	cc                   	int3
   14000164e:	cc                   	int3
   14000164f:	cc                   	int3
   140001650:	48 89 5c 24 08       	mov    QWORD PTR [rsp+0x8],rbx
   140001655:	48 89 6c 24 10       	mov    QWORD PTR [rsp+0x10],rbp
   14000165a:	48 89 74 24 18       	mov    QWORD PTR [rsp+0x18],rsi
   14000165f:	57                   	push   rdi
   140001660:	41 56                	push   r14
   140001662:	41 57                	push   r15
   140001664:	48 81 ec 30 01 00 00 	sub    rsp,0x130
   14000166b:	48 8b e9             	mov    rbp,rcx
   14000166e:	48 85 c9             	test   rcx,rcx
   140001671:	0f 84 8f 00 00 00    	je     0x140001706
   140001677:	65 48 8b 04 25 60 00 	mov    rax,QWORD PTR gs:0x60
   14000167e:	00 00 
   140001680:	48 8b 50 18          	mov    rdx,QWORD PTR [rax+0x18]
   140001684:	48 8b 72 20          	mov    rsi,QWORD PTR [rdx+0x20]
   140001688:	48 85 f6             	test   rsi,rsi
   14000168b:	74 79                	je     0x140001706
   14000168d:	41 bf 03 01 00 00    	mov    r15d,0x103
   140001693:	4c 8b 76 50          	mov    r14,QWORD PTR [rsi+0x50]
   140001697:	4d 85 f6             	test   r14,r14
   14000169a:	74 6a                	je     0x140001706
   14000169c:	66 44 39 7e 48       	cmp    WORD PTR [rsi+0x48],r15w
   1400016a1:	73 5b                	jae    0x1400016fe
   1400016a3:	33 d2                	xor    edx,edx
   1400016a5:	48 8d 4c 24 20       	lea    rcx,[rsp+0x20]
   1400016aa:	41 b8 04 01 00 00    	mov    r8d,0x104
   1400016b0:	e8 6b fa ff ff       	call   0x140001120
   1400016b5:	33 db                	xor    ebx,ebx
   1400016b7:	66 41 39 1e          	cmp    WORD PTR [r14],bx
   1400016bb:	74 24                	je     0x1400016e1
   1400016bd:	0f 1f 00             	nop    DWORD PTR [rax]
   1400016c0:	41 3b df             	cmp    ebx,r15d
   1400016c3:	73 1c                	jae    0x1400016e1
   1400016c5:	41 0f b6 0c 5e       	movzx  ecx,BYTE PTR [r14+rbx*2]
   1400016ca:	e8 c1 fe ff ff       	call   0x140001590
   1400016cf:	4c 8b 76 50          	mov    r14,QWORD PTR [rsi+0x50]
   1400016d3:	88 44 1c 20          	mov    BYTE PTR [rsp+rbx*1+0x20],al
   1400016d7:	ff c3                	inc    ebx
   1400016d9:	66 41 83 3c 5e 00    	cmp    WORD PTR [r14+rbx*2],0x0
   1400016df:	75 df                	jne    0x1400016c0
   1400016e1:	48 8b cd             	mov    rcx,rbp
   1400016e4:	c6 44 1c 20 00       	mov    BYTE PTR [rsp+rbx*1+0x20],0x0
   1400016e9:	e8 c2 fd ff ff       	call   0x1400014b0
   1400016ee:	48 8d 4c 24 20       	lea    rcx,[rsp+0x20]
   1400016f3:	8b d8                	mov    ebx,eax
   1400016f5:	e8 b6 fd ff ff       	call   0x1400014b0
   1400016fa:	3b c3                	cmp    eax,ebx
   1400016fc:	74 27                	je     0x140001725
   1400016fe:	48 8b 36             	mov    rsi,QWORD PTR [rsi]
   140001701:	48 85 f6             	test   rsi,rsi
   140001704:	75 8d                	jne    0x140001693
   140001706:	33 c0                	xor    eax,eax
   140001708:	4c 8d 9c 24 30 01 00 	lea    r11,[rsp+0x130]
   14000170f:	00 
   140001710:	49 8b 5b 20          	mov    rbx,QWORD PTR [r11+0x20]
   140001714:	49 8b 6b 28          	mov    rbp,QWORD PTR [r11+0x28]
   140001718:	49 8b 73 30          	mov    rsi,QWORD PTR [r11+0x30]
   14000171c:	49 8b e3             	mov    rsp,r11
   14000171f:	41 5f                	pop    r15
   140001721:	41 5e                	pop    r14
   140001723:	5f                   	pop    rdi
   140001724:	c3                   	ret
   140001725:	48 8b 46 20          	mov    rax,QWORD PTR [rsi+0x20]
   140001729:	eb dd                	jmp    0x140001708
   14000172b:	cc                   	int3
   14000172c:	cc                   	int3
   14000172d:	cc                   	int3
   14000172e:	cc                   	int3
   14000172f:	cc                   	int3
   140001730:	48 89 5c 24 08       	mov    QWORD PTR [rsp+0x8],rbx
   140001735:	48 89 6c 24 10       	mov    QWORD PTR [rsp+0x10],rbp
   14000173a:	48 89 74 24 18       	mov    QWORD PTR [rsp+0x18],rsi
   14000173f:	57                   	push   rdi
   140001740:	41 54                	push   r12
   140001742:	41 55                	push   r13
   140001744:	41 56                	push   r14
   140001746:	41 57                	push   r15
   140001748:	48 81 ec 40 02 00 00 	sub    rsp,0x240
   14000174f:	44 8b fa             	mov    r15d,edx
   140001752:	48 8b e9             	mov    rbp,rcx
   140001755:	48 85 c9             	test   rcx,rcx
   140001758:	0f 84 2c 01 00 00    	je     0x14000188a
   14000175e:	85 d2                	test   edx,edx
   140001760:	0f 84 24 01 00 00    	je     0x14000188a
   140001766:	4c 63 61 3c          	movsxd r12,DWORD PTR [rcx+0x3c]
   14000176a:	45 33 f6             	xor    r14d,r14d
   14000176d:	41 8b 84 0c 88 00 00 	mov    eax,DWORD PTR [r12+rcx*1+0x88]
   140001774:	00 
   140001775:	48 03 c1             	add    rax,rcx
   140001778:	8b 58 20             	mov    ebx,DWORD PTR [rax+0x20]
   14000177b:	44 8b 68 1c          	mov    r13d,DWORD PTR [rax+0x1c]
   14000177f:	48 03 d9             	add    rbx,rcx
   140001782:	8b 78 24             	mov    edi,DWORD PTR [rax+0x24]
   140001785:	4c 03 e9             	add    r13,rcx
   140001788:	8b 70 18             	mov    esi,DWORD PTR [rax+0x18]
   14000178b:	48 03 f9             	add    rdi,rcx
   14000178e:	85 f6                	test   esi,esi
   140001790:	0f 84 ef 00 00 00    	je     0x140001885
   140001796:	66 66 0f 1f 84 00 00 	data16 nop WORD PTR [rax+rax*1+0x0]
   14000179d:	00 00 00 
   1400017a0:	8b 0b                	mov    ecx,DWORD PTR [rbx]
   1400017a2:	ff ce                	dec    esi
   1400017a4:	48 03 cd             	add    rcx,rbp
   1400017a7:	e8 04 fd ff ff       	call   0x1400014b0
   1400017ac:	41 3b c7             	cmp    eax,r15d
   1400017af:	74 14                	je     0x1400017c5
   1400017b1:	48 83 c3 04          	add    rbx,0x4
   1400017b5:	48 83 c7 02          	add    rdi,0x2
   1400017b9:	85 f6                	test   esi,esi
   1400017bb:	75 e3                	jne    0x1400017a0
   1400017bd:	49 8b c6             	mov    rax,r14
   1400017c0:	e9 c7 00 00 00       	jmp    0x14000188c
   1400017c5:	0f b7 07             	movzx  eax,WORD PTR [rdi]
   1400017c8:	41 8b 8c 2c 88 00 00 	mov    ecx,DWORD PTR [r12+rbp*1+0x88]
   1400017cf:	00 
   1400017d0:	41 8b 54 85 00       	mov    edx,DWORD PTR [r13+rax*4+0x0]
   1400017d5:	4c 8d 34 2a          	lea    r14,[rdx+rbp*1]
   1400017d9:	3b ca                	cmp    ecx,edx
   1400017db:	0f 87 a4 00 00 00    	ja     0x140001885
   1400017e1:	41 03 8c 2c 8c 00 00 	add    ecx,DWORD PTR [r12+rbp*1+0x8c]
   1400017e8:	00 
   1400017e9:	3b ca                	cmp    ecx,edx
   1400017eb:	0f 82 94 00 00 00    	jb     0x140001885
   1400017f1:	33 d2                	xor    edx,edx
   1400017f3:	48 8d 4c 24 20       	lea    rcx,[rsp+0x20]
   1400017f8:	41 b8 04 01 00 00    	mov    r8d,0x104
   1400017fe:	e8 1d f9 ff ff       	call   0x140001120
   140001803:	33 d2                	xor    edx,edx
   140001805:	48 8d 8c 24 30 01 00 	lea    rcx,[rsp+0x130]
   14000180c:	00 
   14000180d:	41 b8 04 01 00 00    	mov    r8d,0x104
   140001813:	e8 08 f9 ff ff       	call   0x140001120
   140001818:	49 8b ce             	mov    rcx,r14
   14000181b:	e8 40 fc ff ff       	call   0x140001460
   140001820:	85 c0                	test   eax,eax
   140001822:	74 66                	je     0x14000188a
   140001824:	44 8b c0             	mov    r8d,eax
   140001827:	48 8d 4c 24 20       	lea    rcx,[rsp+0x20]
   14000182c:	49 8b d6             	mov    rdx,r14
   14000182f:	8b d8                	mov    ebx,eax
   140001831:	e8 9a f8 ff ff       	call   0x1400010d0
   140001836:	49 8d 4e 01          	lea    rcx,[r14+0x1]
   14000183a:	48 03 cb             	add    rcx,rbx
   14000183d:	e8 fe fc ff ff       	call   0x140001540
   140001842:	48 8d 53 01          	lea    rdx,[rbx+0x1]
   140001846:	4c 8b c0             	mov    r8,rax
   140001849:	49 03 d6             	add    rdx,r14
   14000184c:	48 8d 8c 24 30 01 00 	lea    rcx,[rsp+0x130]
   140001853:	00 
   140001854:	e8 77 f8 ff ff       	call   0x1400010d0
   140001859:	48 8d 4c 24 20       	lea    rcx,[rsp+0x20]
   14000185e:	e8 9d 00 00 00       	call   0x140001900
   140001863:	48 8b d8             	mov    rbx,rax
   140001866:	48 85 c0             	test   rax,rax
   140001869:	74 1a                	je     0x140001885
   14000186b:	48 8d 8c 24 30 01 00 	lea    rcx,[rsp+0x130]
   140001872:	00 
   140001873:	e8 38 fc ff ff       	call   0x1400014b0
   140001878:	8b d0                	mov    edx,eax
   14000187a:	48 8b cb             	mov    rcx,rbx
   14000187d:	e8 ae fe ff ff       	call   0x140001730
   140001882:	4c 8b f0             	mov    r14,rax
   140001885:	49 8b c6             	mov    rax,r14
   140001888:	eb 02                	jmp    0x14000188c
   14000188a:	33 c0                	xor    eax,eax
   14000188c:	4c 8d 9c 24 40 02 00 	lea    r11,[rsp+0x240]
   140001893:	00 
   140001894:	49 8b 5b 30          	mov    rbx,QWORD PTR [r11+0x30]
   140001898:	49 8b 6b 38          	mov    rbp,QWORD PTR [r11+0x38]
   14000189c:	49 8b 73 40          	mov    rsi,QWORD PTR [r11+0x40]
   1400018a0:	49 8b e3             	mov    rsp,r11
   1400018a3:	41 5f                	pop    r15
   1400018a5:	41 5e                	pop    r14
   1400018a7:	41 5d                	pop    r13
   1400018a9:	41 5c                	pop    r12
   1400018ab:	5f                   	pop    rdi
   1400018ac:	c3                   	ret
   1400018ad:	cc                   	int3
   1400018ae:	cc                   	int3
   1400018af:	cc                   	int3
   1400018b0:	48 8b c4             	mov    rax,rsp
   1400018b3:	48 83 ec 48          	sub    rsp,0x48
   1400018b7:	48 8d 50 d8          	lea    rdx,[rax-0x28]
   1400018bb:	c7 40 d8 ae 44 40 01 	mov    DWORD PTR [rax-0x28],0x14044ae
   1400018c2:	b9 07 00 00 00       	mov    ecx,0x7
   1400018c7:	c7 40 dc 20 73 7c e6 	mov    DWORD PTR [rax-0x24],0xe67c7320
   1400018ce:	c7 40 e0 02 da 2e ac 	mov    DWORD PTR [rax-0x20],0xac2eda02
   1400018d5:	c7 40 e4 8c ec 43 d4 	mov    DWORD PTR [rax-0x1c],0xd443ec8c
   1400018dc:	c7 40 e8 b3 00 dd 92 	mov    DWORD PTR [rax-0x18],0x92dd00b3
   1400018e3:	c7 40 ec 86 10 d7 12 	mov    DWORD PTR [rax-0x14],0x12d71086
   1400018ea:	c7 40 f0 a4 64 3f 7b 	mov    DWORD PTR [rax-0x10],0x7b3f64a4
   1400018f1:	e8 3a 2f 00 00       	call   0x140004830
   1400018f6:	48 83 c4 48          	add    rsp,0x48
   1400018fa:	c3                   	ret
   1400018fb:	cc                   	int3
   1400018fc:	cc                   	int3
   1400018fd:	cc                   	int3
   1400018fe:	cc                   	int3
   1400018ff:	cc                   	int3
   140001900:	40 53                	rex push rbx
   140001902:	48 81 ec 40 02 00 00 	sub    rsp,0x240
   140001909:	48 8b d9             	mov    rbx,rcx
   14000190c:	c7 44 24 24 00 00 00 	mov    DWORD PTR [rsp+0x24],0x0
   140001913:	00 
   140001914:	48 8d 4c 24 30       	lea    rcx,[rsp+0x30]
   140001919:	33 d2                	xor    edx,edx
   14000191b:	41 b8 08 02 00 00    	mov    r8d,0x208
   140001921:	e8 fa f7 ff ff       	call   0x140001120
   140001926:	48 8b cb             	mov    rcx,rbx
   140001929:	48 c7 84 24 58 02 00 	mov    QWORD PTR [rsp+0x258],0x0
   140001930:	00 00 00 00 00 
   140001935:	e8 06 fc ff ff       	call   0x140001540
   14000193a:	4c 8b c0             	mov    r8,rax
   14000193d:	48 8d 4c 24 30       	lea    rcx,[rsp+0x30]
   140001942:	48 8b d3             	mov    rdx,rbx
   140001945:	e8 d6 fa ff ff       	call   0x140001420
   14000194a:	48 8d 4c 24 30       	lea    rcx,[rsp+0x30]
   14000194f:	e8 0c fc ff ff       	call   0x140001560
   140001954:	66 03 c0             	add    ax,ax
   140001957:	48 8d 0d 92 47 00 00 	lea    rcx,[rip+0x4792]        # 0x1400060f0
   14000195e:	66 89 44 24 20       	mov    WORD PTR [rsp+0x20],ax
   140001963:	66 83 c0 02          	add    ax,0x2
   140001967:	66 89 44 24 22       	mov    WORD PTR [rsp+0x22],ax
   14000196c:	48 8d 44 24 30       	lea    rax,[rsp+0x30]
   140001971:	48 89 44 24 28       	mov    QWORD PTR [rsp+0x28],rax
   140001976:	e8 d5 fc ff ff       	call   0x140001650
   14000197b:	48 8b c8             	mov    rcx,rax
   14000197e:	ba 22 8b 4c cc       	mov    edx,0xcc4c8b22
   140001983:	e8 a8 fd ff ff       	call   0x140001730
   140001988:	48 85 c0             	test   rax,rax
   14000198b:	74 28                	je     0x1400019b5
   14000198d:	4c 8d 8c 24 58 02 00 	lea    r9,[rsp+0x258]
   140001994:	00 
   140001995:	33 d2                	xor    edx,edx
   140001997:	4c 8d 44 24 20       	lea    r8,[rsp+0x20]
   14000199c:	33 c9                	xor    ecx,ecx
   14000199e:	ff d0                	call   rax
   1400019a0:	85 c0                	test   eax,eax
   1400019a2:	78 11                	js     0x1400019b5
   1400019a4:	48 8b 84 24 58 02 00 	mov    rax,QWORD PTR [rsp+0x258]
   1400019ab:	00 
   1400019ac:	48 81 c4 40 02 00 00 	add    rsp,0x240
   1400019b3:	5b                   	pop    rbx
   1400019b4:	c3                   	ret
   1400019b5:	33 c0                	xor    eax,eax
   1400019b7:	48 81 c4 40 02 00 00 	add    rsp,0x240
   1400019be:	5b                   	pop    rbx
   1400019bf:	c3                   	ret
   1400019c0:	48 89 5c 24 18       	mov    QWORD PTR [rsp+0x18],rbx
   1400019c5:	48 89 6c 24 20       	mov    QWORD PTR [rsp+0x20],rbp
   1400019ca:	56                   	push   rsi
   1400019cb:	57                   	push   rdi
   1400019cc:	41 56                	push   r14
   1400019ce:	48 81 ec 80 02 00 00 	sub    rsp,0x280
   1400019d5:	33 db                	xor    ebx,ebx
   1400019d7:	48 8d 15 e2 46 00 00 	lea    rdx,[rip+0x46e2]        # 0x1400060c0
   1400019de:	48 8d 4c 24 70       	lea    rcx,[rsp+0x70]
   1400019e3:	89 9c 24 a0 02 00 00 	mov    DWORD PTR [rsp+0x2a0],ebx
   1400019ea:	8b eb                	mov    ebp,ebx
   1400019ec:	8b fb                	mov    edi,ebx
   1400019ee:	e8 1d fc ff ff       	call   0x140001610
   1400019f3:	48 8d 15 de 46 00 00 	lea    rdx,[rip+0x46de]        # 0x1400060d8
   1400019fa:	48 8d 4c 24 70       	lea    rcx,[rsp+0x70]
   1400019ff:	e8 bc fb ff ff       	call   0x1400015c0
   140001a04:	48 8d 54 24 70       	lea    rdx,[rsp+0x70]
   140001a09:	48 8d 4c 24 30       	lea    rcx,[rsp+0x30]
   140001a0e:	e8 ed fa ff ff       	call   0x140001500
   140001a13:	48 8d 44 24 30       	lea    rax,[rsp+0x30]
   140001a18:	c7 44 24 40 30 00 00 	mov    DWORD PTR [rsp+0x40],0x30
   140001a1f:	00 
   140001a20:	0f 57 c0             	xorps  xmm0,xmm0
   140001a23:	48 89 44 24 50       	mov    QWORD PTR [rsp+0x50],rax
   140001a28:	4c 8d 84 24 a8 02 00 	lea    r8,[rsp+0x2a8]
   140001a2f:	00 
   140001a30:	48 89 5c 24 48       	mov    QWORD PTR [rsp+0x48],rbx
   140001a35:	48 8d 54 24 40       	lea    rdx,[rsp+0x40]
   140001a3a:	c7 44 24 58 40 00 00 	mov    DWORD PTR [rsp+0x58],0x40
   140001a41:	00 
   140001a42:	8d 4b 0c             	lea    ecx,[rbx+0xc]
   140001a45:	f3 0f 7f 44 24 60    	movdqu XMMWORD PTR [rsp+0x60],xmm0
   140001a4b:	e8 80 31 00 00       	call   0x140004bd0
   140001a50:	39 9c 24 a8 02 00 00 	cmp    DWORD PTR [rsp+0x2a8],ebx
   140001a57:	0f 8c 69 01 00 00    	jl     0x140001bc6
   140001a5d:	48 83 f8 ff          	cmp    rax,0xffffffffffffffff
   140001a61:	0f 84 5f 01 00 00    	je     0x140001bc6
   140001a67:	48 8d 8c 24 a8 02 00 	lea    rcx,[rsp+0x2a8]
   140001a6e:	00 
   140001a6f:	45 33 c9             	xor    r9d,r9d
   140001a72:	48 89 4c 24 28       	mov    QWORD PTR [rsp+0x28],rcx
   140001a77:	45 33 c0             	xor    r8d,r8d
   140001a7a:	48 8b c8             	mov    rcx,rax
   140001a7d:	c7 44 24 20 02 00 00 	mov    DWORD PTR [rsp+0x20],0x2
   140001a84:	00 
   140001a85:	33 d2                	xor    edx,edx
   140001a87:	e8 b4 2f 00 00       	call   0x140004a40
   140001a8c:	48 8d 0d 5d 46 00 00 	lea    rcx,[rip+0x465d]        # 0x1400060f0
   140001a93:	48 8b f0             	mov    rsi,rax
   140001a96:	e8 b5 fb ff ff       	call   0x140001650
   140001a9b:	39 9c 24 a8 02 00 00 	cmp    DWORD PTR [rsp+0x2a8],ebx
   140001aa2:	0f 8c 2a 01 00 00    	jl     0x140001bd2
   140001aa8:	4c 8b c0             	mov    r8,rax
   140001aab:	48 85 f6             	test   rsi,rsi
   140001aae:	0f 84 1e 01 00 00    	je     0x140001bd2
   140001ab4:	48 85 c0             	test   rax,rax
   140001ab7:	0f 84 15 01 00 00    	je     0x140001bd2
   140001abd:	b8 4d 5a 00 00       	mov    eax,0x5a4d
   140001ac2:	66 41 39 00          	cmp    WORD PTR [r8],ax
   140001ac6:	0f 85 06 01 00 00    	jne    0x140001bd2
   140001acc:	49 63 48 3c          	movsxd rcx,DWORD PTR [r8+0x3c]
   140001ad0:	49 03 c8             	add    rcx,r8
   140001ad3:	81 39 50 45 00 00    	cmp    DWORD PTR [rcx],0x4550
   140001ad9:	0f 85 f3 00 00 00    	jne    0x140001bd2
   140001adf:	0f b7 51 06          	movzx  edx,WORD PTR [rcx+0x6]
   140001ae3:	48 85 d2             	test   rdx,rdx
   140001ae6:	0f 84 e6 00 00 00    	je     0x140001bd2
   140001aec:	0f b7 41 14          	movzx  eax,WORD PTR [rcx+0x14]
   140001af0:	48 83 c1 24          	add    rcx,0x24
   140001af4:	48 03 c8             	add    rcx,rax
   140001af7:	66 0f 1f 84 00 00 00 	nop    WORD PTR [rax+rax*1+0x0]
   140001afe:	00 00 
   140001b00:	8b 41 f4             	mov    eax,DWORD PTR [rcx-0xc]
   140001b03:	0d 20 20 20 20       	or     eax,0x20202020
   140001b08:	3d 2e 74 65 78       	cmp    eax,0x7865742e
   140001b0d:	75 0d                	jne    0x140001b1c
   140001b0f:	8b 01                	mov    eax,DWORD PTR [rcx]
   140001b11:	8b 79 fc             	mov    edi,DWORD PTR [rcx-0x4]
   140001b14:	4a 8d 1c 00          	lea    rbx,[rax+r8*1]
   140001b18:	48 8d 2c 30          	lea    rbp,[rax+rsi*1]
   140001b1c:	48 83 c1 28          	add    rcx,0x28
   140001b20:	48 83 ea 01          	sub    rdx,0x1
   140001b24:	75 da                	jne    0x140001b00
   140001b26:	48 85 ff             	test   rdi,rdi
   140001b29:	0f 84 a3 00 00 00    	je     0x140001bd2
   140001b2f:	48 85 db             	test   rbx,rbx
   140001b32:	0f 84 9a 00 00 00    	je     0x140001bd2
   140001b38:	48 85 ed             	test   rbp,rbp
   140001b3b:	0f 84 91 00 00 00    	je     0x140001bd2
   140001b41:	48 8d 84 24 a0 02 00 	lea    rax,[rsp+0x2a0]
   140001b48:	00 
   140001b49:	41 b9 80 00 00 00    	mov    r9d,0x80
   140001b4f:	4c 8b c7             	mov    r8,rdi
   140001b52:	48 89 44 24 20       	mov    QWORD PTR [rsp+0x20],rax
   140001b57:	48 8b d3             	mov    rdx,rbx
   140001b5a:	33 c9                	xor    ecx,ecx
   140001b5c:	e8 0f 31 00 00       	call   0x140004c70
   140001b61:	83 bc 24 a0 02 00 00 	cmp    DWORD PTR [rsp+0x2a0],0x0
   140001b68:	00 
   140001b69:	44 8b f0             	mov    r14d,eax
   140001b6c:	7c 64                	jl     0x140001bd2
   140001b6e:	4c 8b c7             	mov    r8,rdi
   140001b71:	48 8b d5             	mov    rdx,rbp
   140001b74:	48 8b cb             	mov    rcx,rbx
   140001b77:	e8 54 f5 ff ff       	call   0x1400010d0
   140001b7c:	48 8d 84 24 a0 02 00 	lea    rax,[rsp+0x2a0]
   140001b83:	00 
   140001b84:	45 8b ce             	mov    r9d,r14d
   140001b87:	4c 8b c7             	mov    r8,rdi
   140001b8a:	48 89 44 24 20       	mov    QWORD PTR [rsp+0x20],rax
   140001b8f:	48 8b d3             	mov    rdx,rbx
   140001b92:	33 c9                	xor    ecx,ecx
   140001b94:	e8 d7 30 00 00       	call   0x140004c70
   140001b99:	83 bc 24 a0 02 00 00 	cmp    DWORD PTR [rsp+0x2a0],0x0
   140001ba0:	00 
   140001ba1:	7c 2f                	jl     0x140001bd2
   140001ba3:	4c 8d 84 24 a0 02 00 	lea    r8,[rsp+0x2a0]
   140001baa:	00 
   140001bab:	48 8b d6             	mov    rdx,rsi
   140001bae:	33 c9                	xor    ecx,ecx
   140001bb0:	e8 ab 31 00 00       	call   0x140004d60
   140001bb5:	83 bc 24 a0 02 00 00 	cmp    DWORD PTR [rsp+0x2a0],0x0
   140001bbc:	00 
   140001bbd:	7c 13                	jl     0x140001bd2
   140001bbf:	b8 01 00 00 00       	mov    eax,0x1
   140001bc4:	eb 0e                	jmp    0x140001bd4
   140001bc6:	48 8d 0d 23 45 00 00 	lea    rcx,[rip+0x4523]        # 0x1400060f0
   140001bcd:	e8 7e fa ff ff       	call   0x140001650
   140001bd2:	33 c0                	xor    eax,eax
   140001bd4:	4c 8d 9c 24 80 02 00 	lea    r11,[rsp+0x280]
   140001bdb:	00 
   140001bdc:	49 8b 5b 30          	mov    rbx,QWORD PTR [r11+0x30]
   140001be0:	49 8b 6b 38          	mov    rbp,QWORD PTR [r11+0x38]
   140001be4:	49 8b e3             	mov    rsp,r11
   140001be7:	41 5e                	pop    r14
   140001be9:	5f                   	pop    rdi
   140001bea:	5e                   	pop    rsi
   140001beb:	c3                   	ret
   140001bec:	cc                   	int3
   140001bed:	cc                   	int3
   140001bee:	cc                   	int3
   140001bef:	cc                   	int3
   140001bf0:	40 53                	rex push rbx
   140001bf2:	57                   	push   rdi
   140001bf3:	48 83 ec 38          	sub    rsp,0x38
   140001bf7:	65 48 8b 1c 25 60 00 	mov    rbx,QWORD PTR gs:0x60
   140001bfe:	00 00 
   140001c00:	ff 15 12 44 00 00    	call   QWORD PTR [rip+0x4412]        # 0x140006018
   140001c06:	ba 08 00 00 00       	mov    edx,0x8
   140001c0b:	41 b8 00 04 00 00    	mov    r8d,0x400
   140001c11:	48 8b c8             	mov    rcx,rax
   140001c14:	ff 15 e6 43 00 00    	call   QWORD PTR [rip+0x43e6]        # 0x140006000
   140001c1a:	48 8b f8             	mov    rdi,rax
   140001c1d:	ff 15 0d 44 00 00    	call   QWORD PTR [rip+0x440d]        # 0x140006030
   140001c23:	3d 1c 36 00 00       	cmp    eax,0x361c
   140001c28:	0f 85 b0 00 00 00    	jne    0x140001cde
   140001c2e:	33 c9                	xor    ecx,ecx
   140001c30:	ff 15 02 44 00 00    	call   QWORD PTR [rip+0x4402]        # 0x140006038
   140001c36:	33 c9                	xor    ecx,ecx
   140001c38:	ff 15 02 44 00 00    	call   QWORD PTR [rip+0x4402]        # 0x140006040
   140001c3e:	33 d2                	xor    edx,edx
   140001c40:	33 c9                	xor    ecx,ecx
   140001c42:	ff 15 08 44 00 00    	call   QWORD PTR [rip+0x4408]        # 0x140006050
   140001c48:	33 c9                	xor    ecx,ecx
   140001c4a:	ff 15 f8 43 00 00    	call   QWORD PTR [rip+0x43f8]        # 0x140006048
   140001c50:	33 c9                	xor    ecx,ecx
   140001c52:	ff 15 00 44 00 00    	call   QWORD PTR [rip+0x4400]        # 0x140006058
   140001c58:	33 c9                	xor    ecx,ecx
   140001c5a:	ff 15 c8 43 00 00    	call   QWORD PTR [rip+0x43c8]        # 0x140006028
   140001c60:	33 c9                	xor    ecx,ecx
   140001c62:	ff 15 b8 43 00 00    	call   QWORD PTR [rip+0x43b8]        # 0x140006020
   140001c68:	45 33 c0             	xor    r8d,r8d
   140001c6b:	33 d2                	xor    edx,edx
   140001c6d:	33 c9                	xor    ecx,ecx
   140001c6f:	ff 15 03 44 00 00    	call   QWORD PTR [rip+0x4403]        # 0x140006078
   140001c75:	33 c9                	xor    ecx,ecx
   140001c77:	ff 15 eb 43 00 00    	call   QWORD PTR [rip+0x43eb]        # 0x140006068
   140001c7d:	33 d2                	xor    edx,edx
   140001c7f:	33 c9                	xor    ecx,ecx
   140001c81:	ff 15 e9 43 00 00    	call   QWORD PTR [rip+0x43e9]        # 0x140006070
   140001c87:	33 d2                	xor    edx,edx
   140001c89:	33 c9                	xor    ecx,ecx
   140001c8b:	ff 15 f7 43 00 00    	call   QWORD PTR [rip+0x43f7]        # 0x140006088
   140001c91:	45 33 c0             	xor    r8d,r8d
   140001c94:	33 d2                	xor    edx,edx
   140001c96:	33 c9                	xor    ecx,ecx
   140001c98:	ff 15 e2 43 00 00    	call   QWORD PTR [rip+0x43e2]        # 0x140006080
   140001c9e:	33 c9                	xor    ecx,ecx
   140001ca0:	ff 15 0a 44 00 00    	call   QWORD PTR [rip+0x440a]        # 0x1400060b0
   140001ca6:	ff 15 84 43 00 00    	call   QWORD PTR [rip+0x4384]        # 0x140006030
   140001cac:	45 33 c9             	xor    r9d,r9d
   140001caf:	45 33 c0             	xor    r8d,r8d
   140001cb2:	33 d2                	xor    edx,edx
   140001cb4:	33 c9                	xor    ecx,ecx
   140001cb6:	ff 15 ec 43 00 00    	call   QWORD PTR [rip+0x43ec]        # 0x1400060a8
   140001cbc:	45 33 c9             	xor    r9d,r9d
   140001cbf:	45 33 c0             	xor    r8d,r8d
   140001cc2:	33 d2                	xor    edx,edx
   140001cc4:	33 c9                	xor    ecx,ecx
   140001cc6:	ff 15 d4 43 00 00    	call   QWORD PTR [rip+0x43d4]        # 0x1400060a0
   140001ccc:	33 c9                	xor    ecx,ecx
   140001cce:	ff 15 bc 43 00 00    	call   QWORD PTR [rip+0x43bc]        # 0x140006090
   140001cd4:	33 c9                	xor    ecx,ecx
   140001cd6:	ff 15 bc 43 00 00    	call   QWORD PTR [rip+0x43bc]        # 0x140006098
   140001cdc:	eb 14                	jmp    0x140001cf2
   140001cde:	ff 15 34 43 00 00    	call   QWORD PTR [rip+0x4334]        # 0x140006018
   140001ce4:	4c 8b c7             	mov    r8,rdi
   140001ce7:	33 d2                	xor    edx,edx
   140001ce9:	48 8b c8             	mov    rcx,rax
   140001cec:	ff 15 16 43 00 00    	call   QWORD PTR [rip+0x4316]        # 0x140006008
   140001cf2:	48 89 6c 24 60       	mov    QWORD PTR [rsp+0x60],rbp
   140001cf7:	48 89 74 24 30       	mov    QWORD PTR [rsp+0x30],rsi
   140001cfc:	48 85 db             	test   rbx,rbx
   140001cff:	74 47                	je     0x140001d48
   140001d01:	83 bb 18 01 00 00 0a 	cmp    DWORD PTR [rbx+0x118],0xa
   140001d08:	75 3e                	jne    0x140001d48
   140001d0a:	33 ff                	xor    edi,edi
   140001d0c:	48 89 7c 24 58       	mov    QWORD PTR [rsp+0x58],rdi
   140001d11:	48 89 7c 24 50       	mov    QWORD PTR [rsp+0x50],rdi
   140001d16:	48 8b 6b 10          	mov    rbp,QWORD PTR [rbx+0x10]
   140001d1a:	48 63 75 3c          	movsxd rsi,DWORD PTR [rbp+0x3c]
   140001d1e:	48 8d 9d 08 01 00 00 	lea    rbx,[rbp+0x108]
   140001d25:	48 03 de             	add    rbx,rsi
   140001d28:	48 8b cb             	mov    rcx,rbx
   140001d2b:	e8 80 f7 ff ff       	call   0x1400014b0
   140001d30:	3d 2d 0b 52 9f       	cmp    eax,0x9f520b2d
   140001d35:	74 27                	je     0x140001d5e
   140001d37:	0f b7 44 2e 06       	movzx  eax,WORD PTR [rsi+rbp*1+0x6]
   140001d3c:	48 83 c3 28          	add    rbx,0x28
   140001d40:	48 ff c7             	inc    rdi
   140001d43:	48 3b f8             	cmp    rdi,rax
   140001d46:	76 e0                	jbe    0x140001d28
   140001d48:	b8 ff ff ff ff       	mov    eax,0xffffffff
   140001d4d:	48 8b 74 24 30       	mov    rsi,QWORD PTR [rsp+0x30]
   140001d52:	48 8b 6c 24 60       	mov    rbp,QWORD PTR [rsp+0x60]
   140001d57:	48 83 c4 38          	add    rsp,0x38
   140001d5b:	5f                   	pop    rdi
   140001d5c:	5b                   	pop    rbx
   140001d5d:	c3                   	ret
   140001d5e:	8b 7b 0c             	mov    edi,DWORD PTR [rbx+0xc]
   140001d61:	8b 5b 10             	mov    ebx,DWORD PTR [rbx+0x10]
   140001d64:	48 03 fd             	add    rdi,rbp
   140001d67:	74 df                	je     0x140001d48
   140001d69:	48 85 db             	test   rbx,rbx
   140001d6c:	74 da                	je     0x140001d48
   140001d6e:	e8 3d fb ff ff       	call   0x1400018b0
   140001d73:	85 c0                	test   eax,eax
   140001d75:	74 d1                	je     0x140001d48
   140001d77:	48 8d 44 24 50       	lea    rax,[rsp+0x50]
   140001d7c:	44 8b c3             	mov    r8d,ebx
   140001d7f:	4c 8d 4c 24 58       	lea    r9,[rsp+0x58]
   140001d84:	48 89 44 24 20       	mov    QWORD PTR [rsp+0x20],rax
   140001d89:	48 8b d7             	mov    rdx,rdi
   140001d8c:	b9 01 00 00 00       	mov    ecx,0x1
   140001d91:	e8 6a f5 ff ff       	call   0x140001300
   140001d96:	85 c0                	test   eax,eax
   140001d98:	75 ae                	jne    0x140001d48
   140001d9a:	48 8b 54 24 50       	mov    rdx,QWORD PTR [rsp+0x50]
   140001d9f:	44 8d 40 01          	lea    r8d,[rax+0x1]
   140001da3:	48 8b 4c 24 58       	mov    rcx,QWORD PTR [rsp+0x58]
   140001da8:	e8 13 00 00 00       	call   0x140001dc0
   140001dad:	48 8b 74 24 30       	mov    rsi,QWORD PTR [rsp+0x30]
   140001db2:	33 c0                	xor    eax,eax
   140001db4:	48 8b 6c 24 60       	mov    rbp,QWORD PTR [rsp+0x60]
   140001db9:	48 83 c4 38          	add    rsp,0x38
   140001dbd:	5f                   	pop    rdi
   140001dbe:	5b                   	pop    rbx
   140001dbf:	c3                   	ret
   140001dc0:	48 85 c9             	test   rcx,rcx
   140001dc3:	0f 84 d2 04 00 00    	je     0x14000229b
   140001dc9:	4c 8b dc             	mov    r11,rsp
   140001dcc:	55                   	push   rbp
   140001dcd:	41 54                	push   r12
   140001dcf:	48 81 ec b8 00 00 00 	sub    rsp,0xb8
   140001dd6:	45 33 e4             	xor    r12d,r12d
   140001dd9:	48 8b e9             	mov    rbp,rcx
   140001ddc:	48 85 d2             	test   rdx,rdx
   140001ddf:	0f 84 ac 04 00 00    	je     0x140002291
   140001de5:	b8 4d 5a 00 00       	mov    eax,0x5a4d
   140001dea:	66 39 01             	cmp    WORD PTR [rcx],ax
   140001ded:	0f 85 9e 04 00 00    	jne    0x140002291
   140001df3:	4d 89 73 d0          	mov    QWORD PTR [r11-0x30],r14
   140001df7:	4c 63 71 3c          	movsxd r14,DWORD PTR [rcx+0x3c]
   140001dfb:	4c 03 f1             	add    r14,rcx
   140001dfe:	4d 89 73 08          	mov    QWORD PTR [r11+0x8],r14
   140001e02:	41 81 3e 50 45 00 00 	cmp    DWORD PTR [r14],0x4550
   140001e09:	0f 85 7a 04 00 00    	jne    0x140002289
   140001e0f:	49 89 5b 10          	mov    QWORD PTR [r11+0x10],rbx
   140001e13:	49 8d 8e d0 00 00 00 	lea    rcx,[r14+0xd0]
   140001e1a:	4d 89 6b d8          	mov    QWORD PTR [r11-0x28],r13
   140001e1e:	4d 8d ae b0 00 00 00 	lea    r13,[r14+0xb0]
   140001e25:	4d 89 7b c8          	mov    QWORD PTR [r11-0x38],r15
   140001e29:	4d 8d be 90 00 00 00 	lea    r15,[r14+0x90]
   140001e30:	4c 89 7c 24 30       	mov    QWORD PTR [rsp+0x30],r15
   140001e35:	49 8d 86 a0 00 00 00 	lea    rax,[r14+0xa0]
   140001e3c:	4d 89 6b 20          	mov    QWORD PTR [r11+0x20],r13
   140001e40:	49 8d 9e 08 01 00 00 	lea    rbx,[r14+0x108]
   140001e47:	4d 85 f6             	test   r14,r14
   140001e4a:	0f 84 21 04 00 00    	je     0x140002271
   140001e50:	4d 85 ff             	test   r15,r15
   140001e53:	0f 84 18 04 00 00    	je     0x140002271
   140001e59:	48 85 c9             	test   rcx,rcx
   140001e5c:	0f 84 0f 04 00 00    	je     0x140002271
   140001e62:	4d 85 ed             	test   r13,r13
   140001e65:	0f 84 06 04 00 00    	je     0x140002271
   140001e6b:	48 85 c0             	test   rax,rax
   140001e6e:	0f 84 fd 03 00 00    	je     0x140002271
   140001e74:	48 85 db             	test   rbx,rbx
   140001e77:	0f 84 f4 03 00 00    	je     0x140002271
   140001e7d:	49 8b 56 30          	mov    rdx,QWORD PTR [r14+0x30]
   140001e81:	45 33 c0             	xor    r8d,r8d
   140001e84:	33 c9                	xor    ecx,ecx
   140001e86:	49 89 7b e0          	mov    QWORD PTR [r11-0x20],rdi
   140001e8a:	e8 d1 2e 00 00       	call   0x140004d60
   140001e8f:	45 8b 46 50          	mov    r8d,DWORD PTR [r14+0x50]
   140001e93:	45 33 c9             	xor    r9d,r9d
   140001e96:	49 8b 56 30          	mov    rdx,QWORD PTR [r14+0x30]
   140001e9a:	33 c9                	xor    ecx,ecx
   140001e9c:	4c 89 64 24 28       	mov    QWORD PTR [rsp+0x28],r12
   140001ea1:	44 89 64 24 20       	mov    DWORD PTR [rsp+0x20],r12d
   140001ea6:	e8 25 2a 00 00       	call   0x1400048d0
   140001eab:	48 8b f8             	mov    rdi,rax
   140001eae:	48 85 c0             	test   rax,rax
   140001eb1:	75 17                	jne    0x140001eca
   140001eb3:	41 8b 4e 50          	mov    ecx,DWORD PTR [r14+0x50]
   140001eb7:	33 d2                	xor    edx,edx
   140001eb9:	e8 42 2b 00 00       	call   0x140004a00
   140001ebe:	48 8b f8             	mov    rdi,rax
   140001ec1:	48 85 c0             	test   rax,rax
   140001ec4:	0f 84 9f 03 00 00    	je     0x140002269
   140001eca:	45 8b 46 54          	mov    r8d,DWORD PTR [r14+0x54]
   140001ece:	48 8b d5             	mov    rdx,rbp
   140001ed1:	48 8b cf             	mov    rcx,rdi
   140001ed4:	48 89 b4 24 b0 00 00 	mov    QWORD PTR [rsp+0xb0],rsi
   140001edb:	00 
   140001edc:	e8 ef f1 ff ff       	call   0x1400010d0
   140001ee1:	41 8b f4             	mov    esi,r12d
   140001ee4:	66 45 3b 66 06       	cmp    r12w,WORD PTR [r14+0x6]
   140001ee9:	73 28                	jae    0x140001f13
   140001eeb:	48 83 c3 14          	add    rbx,0x14
   140001eef:	90                   	nop
   140001ef0:	8b 13                	mov    edx,DWORD PTR [rbx]
   140001ef2:	8b 4b f8             	mov    ecx,DWORD PTR [rbx-0x8]
   140001ef5:	48 03 d5             	add    rdx,rbp
   140001ef8:	44 8b 43 fc          	mov    r8d,DWORD PTR [rbx-0x4]
   140001efc:	48 03 cf             	add    rcx,rdi
   140001eff:	e8 cc f1 ff ff       	call   0x1400010d0
   140001f04:	41 0f b7 46 06       	movzx  eax,WORD PTR [r14+0x6]
   140001f09:	48 8d 5b 28          	lea    rbx,[rbx+0x28]
   140001f0d:	ff c6                	inc    esi
   140001f0f:	3b f0                	cmp    esi,eax
   140001f11:	7c dd                	jl     0x140001ef0
   140001f13:	45 39 67 04          	cmp    DWORD PTR [r15+0x4],r12d
   140001f17:	0f 86 d3 00 00 00    	jbe    0x140001ff0
   140001f1d:	0f 1f 00             	nop    DWORD PTR [rax]
   140001f20:	41 8b 07             	mov    eax,DWORD PTR [r15]
   140001f23:	49 03 c4             	add    rax,r12
   140001f26:	8b 2c 38             	mov    ebp,DWORD PTR [rax+rdi*1]
   140001f29:	48 8d 34 38          	lea    rsi,[rax+rdi*1]
   140001f2d:	85 ed                	test   ebp,ebp
   140001f2f:	75 09                	jne    0x140001f3a
   140001f31:	39 6e 10             	cmp    DWORD PTR [rsi+0x10],ebp
   140001f34:	0f 84 a6 00 00 00    	je     0x140001fe0
   140001f3a:	8b 4c 38 0c          	mov    ecx,DWORD PTR [rax+rdi*1+0xc]
   140001f3e:	44 8b 6e 10          	mov    r13d,DWORD PTR [rsi+0x10]
   140001f42:	48 03 cf             	add    rcx,rdi
   140001f45:	e8 b6 f9 ff ff       	call   0x140001900
   140001f4a:	48 8b d8             	mov    rbx,rax
   140001f4d:	48 85 c0             	test   rax,rax
   140001f50:	0f 84 0b 03 00 00    	je     0x140002261
   140001f56:	85 ed                	test   ebp,ebp
   140001f58:	75 03                	jne    0x140001f5d
   140001f5a:	8b 6e 10             	mov    ebp,DWORD PTR [rsi+0x10]
   140001f5d:	4a 83 3c 2f 00       	cmp    QWORD PTR [rdi+r13*1],0x0
   140001f62:	4e 8d 34 2f          	lea    r14,[rdi+r13*1]
   140001f66:	44 8b fd             	mov    r15d,ebp
   140001f69:	49 8d 14 3f          	lea    rdx,[r15+rdi*1]
   140001f6d:	74 5b                	je     0x140001fca
   140001f6f:	49 8b f6             	mov    rsi,r14
   140001f72:	4d 2b fd             	sub    r15,r13
   140001f75:	48 8b 12             	mov    rdx,QWORD PTR [rdx]
   140001f78:	48 85 d2             	test   rdx,rdx
   140001f7b:	79 1a                	jns    0x140001f97
   140001f7d:	48 63 43 3c          	movsxd rax,DWORD PTR [rbx+0x3c]
   140001f81:	8b 8c 18 88 00 00 00 	mov    ecx,DWORD PTR [rax+rbx*1+0x88]
   140001f88:	8b 4c 19 1c          	mov    ecx,DWORD PTR [rcx+rbx*1+0x1c]
   140001f8c:	48 03 cb             	add    rcx,rbx
   140001f8f:	8b 04 91             	mov    eax,DWORD PTR [rcx+rdx*4]
   140001f92:	48 03 c3             	add    rax,rbx
   140001f95:	eb 16                	jmp    0x140001fad
   140001f97:	48 8d 4a 02          	lea    rcx,[rdx+0x2]
   140001f9b:	48 03 cf             	add    rcx,rdi
   140001f9e:	e8 0d f5 ff ff       	call   0x1400014b0
   140001fa3:	8b d0                	mov    edx,eax
   140001fa5:	48 8b cb             	mov    rcx,rbx
   140001fa8:	e8 83 f7 ff ff       	call   0x140001730
   140001fad:	48 85 c0             	test   rax,rax
   140001fb0:	0f 84 ab 02 00 00    	je     0x140002261
   140001fb6:	48 83 c6 08          	add    rsi,0x8
   140001fba:	49 89 06             	mov    QWORD PTR [r14],rax
   140001fbd:	4c 8b f6             	mov    r14,rsi
   140001fc0:	48 83 3e 00          	cmp    QWORD PTR [rsi],0x0
   140001fc4:	49 8d 14 37          	lea    rdx,[r15+rsi*1]
   140001fc8:	75 ab                	jne    0x140001f75
   140001fca:	4c 8b 7c 24 30       	mov    r15,QWORD PTR [rsp+0x30]
   140001fcf:	49 83 c4 14          	add    r12,0x14
   140001fd3:	41 8b 47 04          	mov    eax,DWORD PTR [r15+0x4]
   140001fd7:	4c 3b e0             	cmp    r12,rax
   140001fda:	0f 82 40 ff ff ff    	jb     0x140001f20
   140001fe0:	4c 8b ac 24 e8 00 00 	mov    r13,QWORD PTR [rsp+0xe8]
   140001fe7:	00 
   140001fe8:	4c 8b b4 24 d0 00 00 	mov    r14,QWORD PTR [rsp+0xd0]
   140001fef:	00 
   140001ff0:	49 8b 46 30          	mov    rax,QWORD PTR [r14+0x30]
   140001ff4:	48 3b f8             	cmp    rdi,rax
   140001ff7:	0f 84 e2 00 00 00    	je     0x1400020df
   140001ffd:	45 8b 45 00          	mov    r8d,DWORD PTR [r13+0x0]
   140002001:	4c 8b df             	mov    r11,rdi
   140002004:	4c 03 c7             	add    r8,rdi
   140002007:	4c 2b d8             	sub    r11,rax
   14000200a:	41 83 38 00          	cmp    DWORD PTR [r8],0x0
   14000200e:	0f 84 cb 00 00 00    	je     0x1400020df
   140002014:	0f 1f 40 00          	nop    DWORD PTR [rax+0x0]
   140002018:	0f 1f 84 00 00 00 00 	nop    DWORD PTR [rax+rax*1+0x0]
   14000201f:	00 
   140002020:	41 8b 40 04          	mov    eax,DWORD PTR [r8+0x4]
   140002024:	4d 8d 50 08          	lea    r10,[r8+0x8]
   140002028:	49 03 c0             	add    rax,r8
   14000202b:	4c 3b d0             	cmp    r10,rax
   14000202e:	0f 84 9e 00 00 00    	je     0x1400020d2
   140002034:	0f 1f 40 00          	nop    DWORD PTR [rax+0x0]
   140002038:	0f 1f 84 00 00 00 00 	nop    DWORD PTR [rax+rax*1+0x0]
   14000203f:	00 
   140002040:	45 0f b7 0a          	movzx  r9d,WORD PTR [r10]
   140002044:	41 8b c1             	mov    eax,r9d
   140002047:	41 0f b7 d1          	movzx  edx,r9w
   14000204b:	c1 e8 0c             	shr    eax,0xc
   14000204e:	85 c0                	test   eax,eax
   140002050:	74 6c                	je     0x1400020be
   140002052:	83 e8 01             	sub    eax,0x1
   140002055:	74 4e                	je     0x1400020a5
   140002057:	83 e8 01             	sub    eax,0x1
   14000205a:	74 35                	je     0x140002091
   14000205c:	83 e8 01             	sub    eax,0x1
   14000205f:	74 1d                	je     0x14000207e
   140002061:	83 f8 07             	cmp    eax,0x7
   140002064:	0f 85 f7 01 00 00    	jne    0x140002261
   14000206a:	41 8b 08             	mov    ecx,DWORD PTR [r8]
   14000206d:	41 81 e1 ff 0f 00 00 	and    r9d,0xfff
   140002074:	4a 8d 04 0f          	lea    rax,[rdi+r9*1]
   140002078:	4c 01 1c 01          	add    QWORD PTR [rcx+rax*1],r11
   14000207c:	eb 40                	jmp    0x1400020be
   14000207e:	41 8b 08             	mov    ecx,DWORD PTR [r8]
   140002081:	81 e2 ff 0f 00 00    	and    edx,0xfff
   140002087:	48 8d 04 17          	lea    rax,[rdi+rdx*1]
   14000208b:	44 01 1c 01          	add    DWORD PTR [rcx+rax*1],r11d
   14000208f:	eb 2d                	jmp    0x1400020be
   140002091:	41 8b 08             	mov    ecx,DWORD PTR [r8]
   140002094:	81 e2 ff 0f 00 00    	and    edx,0xfff
   14000209a:	48 8d 04 17          	lea    rax,[rdi+rdx*1]
   14000209e:	66 44 01 1c 01       	add    WORD PTR [rcx+rax*1],r11w
   1400020a3:	eb 19                	jmp    0x1400020be
   1400020a5:	41 8b 08             	mov    ecx,DWORD PTR [r8]
   1400020a8:	81 e2 ff 0f 00 00    	and    edx,0xfff
   1400020ae:	48 03 d7             	add    rdx,rdi
   1400020b1:	49 8b c3             	mov    rax,r11
   1400020b4:	48 03 d1             	add    rdx,rcx
   1400020b7:	48 c1 e8 10          	shr    rax,0x10
   1400020bb:	66 01 02             	add    WORD PTR [rdx],ax
   1400020be:	41 8b 40 04          	mov    eax,DWORD PTR [r8+0x4]
   1400020c2:	49 83 c2 02          	add    r10,0x2
   1400020c6:	49 03 c0             	add    rax,r8
   1400020c9:	4c 3b d0             	cmp    r10,rax
   1400020cc:	0f 85 6e ff ff ff    	jne    0x140002040
   1400020d2:	41 83 3a 00          	cmp    DWORD PTR [r10],0x0
   1400020d6:	4d 8b c2             	mov    r8,r10
   1400020d9:	0f 85 41 ff ff ff    	jne    0x140002020
   1400020df:	41 83 be a4 00 00 00 	cmp    DWORD PTR [r14+0xa4],0x0
   1400020e6:	00 
   1400020e7:	74 4e                	je     0x140002137
   1400020e9:	41 8b 9e a0 00 00 00 	mov    ebx,DWORD PTR [r14+0xa0]
   1400020f0:	48 8d 0d 09 40 00 00 	lea    rcx,[rip+0x4009]        # 0x140006100
   1400020f7:	48 03 df             	add    rbx,rdi
   1400020fa:	e8 51 f5 ff ff       	call   0x140001650
   1400020ff:	48 8b c8             	mov    rcx,rax
   140002102:	ba 5c 58 19 92       	mov    edx,0x9219585c
   140002107:	e8 24 f6 ff ff       	call   0x140001730
   14000210c:	4c 8b c8             	mov    r9,rax
   14000210f:	48 85 c0             	test   rax,rax
   140002112:	74 23                	je     0x140002137
   140002114:	41 8b 96 a4 00 00 00 	mov    edx,DWORD PTR [r14+0xa4]
   14000211b:	48 b8 ab aa aa aa aa 	movabs rax,0xaaaaaaaaaaaaaaab
   140002122:	aa aa aa 
   140002125:	48 f7 e2             	mul    rdx
   140002128:	4c 8b c7             	mov    r8,rdi
   14000212b:	48 8b cb             	mov    rcx,rbx
   14000212e:	48 c1 ea 03          	shr    rdx,0x3
   140002132:	ff ca                	dec    edx
   140002134:	41 ff d1             	call   r9
   140002137:	e8 84 f8 ff ff       	call   0x1400019c0
   14000213c:	45 33 d2             	xor    r10d,r10d
   14000213f:	41 8b da             	mov    ebx,r10d
   140002142:	66 45 3b 56 06       	cmp    r10w,WORD PTR [r14+0x6]
   140002147:	0f 83 c3 00 00 00    	jae    0x140002210
   14000214d:	41 8d 72 02          	lea    esi,[r10+0x2]
   140002151:	8d 6e 02             	lea    ebp,[rsi+0x2]
   140002154:	44 8d 66 7e          	lea    r12d,[rsi+0x7e]
   140002158:	45 8d 7a 10          	lea    r15d,[r10+0x10]
   14000215c:	45 8d 6a 20          	lea    r13d,[r10+0x20]
   140002160:	45 8d 42 40          	lea    r8d,[r10+0x40]
   140002164:	0f 1f 40 00          	nop    DWORD PTR [rax+0x0]
   140002168:	0f 1f 84 00 00 00 00 	nop    DWORD PTR [rax+rax*1+0x0]
   14000216f:	00 
   140002170:	8b c3                	mov    eax,ebx
   140002172:	4c 89 54 24 20       	mov    QWORD PTR [rsp+0x20],r10
   140002177:	48 8d 0c 80          	lea    rcx,[rax+rax*4]
   14000217b:	49 8d 14 ce          	lea    rdx,[r14+rcx*8]
   14000217f:	8b 8a 2c 01 00 00    	mov    ecx,DWORD PTR [rdx+0x12c]
   140002185:	44 8b c9             	mov    r9d,ecx
   140002188:	41 c1 f9 1f          	sar    r9d,0x1f
   14000218c:	8b c1                	mov    eax,ecx
   14000218e:	41 83 e1 08          	and    r9d,0x8
   140002192:	0f ba e1 1e          	bt     ecx,0x1e
   140002196:	44 0f 42 ce          	cmovb  r9d,esi
   14000219a:	25 00 00 00 c0       	and    eax,0xc0000000
   14000219f:	3d 00 00 00 c0       	cmp    eax,0xc0000000
   1400021a4:	8b c1                	mov    eax,ecx
   1400021a6:	44 0f 44 cd          	cmove  r9d,ebp
   1400021aa:	0f ba e1 1d          	bt     ecx,0x1d
   1400021ae:	45 0f 42 cf          	cmovb  r9d,r15d
   1400021b2:	25 00 00 00 a0       	and    eax,0xa0000000
   1400021b7:	3d 00 00 00 a0       	cmp    eax,0xa0000000
   1400021bc:	8b c1                	mov    eax,ecx
   1400021be:	45 0f 44 cc          	cmove  r9d,r12d
   1400021c2:	25 00 00 00 60       	and    eax,0x60000000
   1400021c7:	3d 00 00 00 60       	cmp    eax,0x60000000
   1400021cc:	45 0f 44 cd          	cmove  r9d,r13d
   1400021d0:	81 e1 00 00 00 e0    	and    ecx,0xe0000000
   1400021d6:	81 f9 00 00 00 e0    	cmp    ecx,0xe0000000
   1400021dc:	45 0f 44 c8          	cmove  r9d,r8d
   1400021e0:	44 8b 82 18 01 00 00 	mov    r8d,DWORD PTR [rdx+0x118]
   1400021e7:	8b 92 14 01 00 00    	mov    edx,DWORD PTR [rdx+0x114]
   1400021ed:	33 c9                	xor    ecx,ecx
   1400021ef:	48 03 d7             	add    rdx,rdi
   1400021f2:	e8 79 2a 00 00       	call   0x140004c70
   1400021f7:	41 0f b7 46 06       	movzx  eax,WORD PTR [r14+0x6]
   1400021fc:	41 b8 40 00 00 00    	mov    r8d,0x40
   140002202:	ff c3                	inc    ebx
   140002204:	45 8d 50 c0          	lea    r10d,[r8-0x40]
   140002208:	3b d8                	cmp    ebx,eax
   14000220a:	0f 82 60 ff ff ff    	jb     0x140002170
   140002210:	41 83 be d4 00 00 00 	cmp    DWORD PTR [r14+0xd4],0x0
   140002217:	00 
   140002218:	74 2f                	je     0x140002249
   14000221a:	41 8b 86 d0 00 00 00 	mov    eax,DWORD PTR [r14+0xd0]
   140002221:	48 8b 5c 38 18       	mov    rbx,QWORD PTR [rax+rdi*1+0x18]
   140002226:	48 8b 03             	mov    rax,QWORD PTR [rbx]
   140002229:	48 85 c0             	test   rax,rax
   14000222c:	74 1b                	je     0x140002249
   14000222e:	66 90                	xchg   ax,ax
   140002230:	45 33 c0             	xor    r8d,r8d
   140002233:	48 8b cf             	mov    rcx,rdi
   140002236:	41 8d 50 01          	lea    edx,[r8+0x1]
   14000223a:	ff d0                	call   rax
   14000223c:	48 8b 43 08          	mov    rax,QWORD PTR [rbx+0x8]
   140002240:	48 8d 5b 08          	lea    rbx,[rbx+0x8]
   140002244:	48 85 c0             	test   rax,rax
   140002247:	75 e7                	jne    0x140002230
   140002249:	41 8b 5e 28          	mov    ebx,DWORD PTR [r14+0x28]
   14000224d:	48 8b cf             	mov    rcx,rdi
   140002250:	41 8b 96 14 01 00 00 	mov    edx,DWORD PTR [r14+0x114]
   140002257:	48 03 df             	add    rbx,rdi
   14000225a:	e8 41 f3 ff ff       	call   0x1400015a0
   14000225f:	ff d3                	call   rbx
   140002261:	48 8b b4 24 b0 00 00 	mov    rsi,QWORD PTR [rsp+0xb0]
   140002268:	00 
   140002269:	48 8b bc 24 a8 00 00 	mov    rdi,QWORD PTR [rsp+0xa8]
   140002270:	00 
   140002271:	4c 8b ac 24 a0 00 00 	mov    r13,QWORD PTR [rsp+0xa0]
   140002278:	00 
   140002279:	48 8b 9c 24 d8 00 00 	mov    rbx,QWORD PTR [rsp+0xd8]
   140002280:	00 
   140002281:	4c 8b bc 24 90 00 00 	mov    r15,QWORD PTR [rsp+0x90]
   140002288:	00 
   140002289:	4c 8b b4 24 98 00 00 	mov    r14,QWORD PTR [rsp+0x98]
   140002290:	00 
   140002291:	48 81 c4 b8 00 00 00 	add    rsp,0xb8
   140002298:	41 5c                	pop    r12
   14000229a:	5d                   	pop    rbp
   14000229b:	c3                   	ret
   14000229c:	cc                   	int3
   14000229d:	cc                   	int3
   14000229e:	cc                   	int3
   14000229f:	cc                   	int3
   1400022a0:	40 53                	rex push rbx
   1400022a2:	48 83 ec 30          	sub    rsp,0x30
   1400022a6:	b9 30 00 05 00       	mov    ecx,0x50030
   1400022ab:	ff 15 bf 3e 00 00    	call   QWORD PTR [rip+0x3ebf]        # 0x140006170
   1400022b1:	33 d2                	xor    edx,edx
   1400022b3:	41 b8 30 00 05 00    	mov    r8d,0x50030
   1400022b9:	48 8b c8             	mov    rcx,rax
   1400022bc:	48 8b d8             	mov    rbx,rax
   1400022bf:	e8 5c ee ff ff       	call   0x140001120
   1400022c4:	48 8d 8b 00 00 05 00 	lea    rcx,[rbx+0x50000]
   1400022cb:	48 c7 44 24 20 00 00 	mov    QWORD PTR [rsp+0x20],0x0
   1400022d2:	00 00 
   1400022d4:	45 33 c9             	xor    r9d,r9d
   1400022d7:	45 33 c0             	xor    r8d,r8d
   1400022da:	33 d2                	xor    edx,edx
   1400022dc:	e8 0f 20 00 00       	call   0x1400042f0
   1400022e1:	48 8b c3             	mov    rax,rbx
   1400022e4:	48 83 c4 30          	add    rsp,0x30
   1400022e8:	5b                   	pop    rbx
   1400022e9:	c3                   	ret
   1400022ea:	cc                   	int3
   1400022eb:	cc                   	int3
   1400022ec:	cc                   	int3
   1400022ed:	cc                   	int3
   1400022ee:	cc                   	int3
   1400022ef:	cc                   	int3
   1400022f0:	40 53                	rex push rbx
   1400022f2:	48 83 ec 20          	sub    rsp,0x20
   1400022f6:	48 8b d9             	mov    rbx,rcx
   1400022f9:	48 8b 09             	mov    rcx,QWORD PTR [rcx]
   1400022fc:	48 85 c9             	test   rcx,rcx
   1400022ff:	74 06                	je     0x140002307
   140002301:	ff 15 61 3e 00 00    	call   QWORD PTR [rip+0x3e61]        # 0x140006168
   140002307:	48 c7 03 00 00 00 00 	mov    QWORD PTR [rbx],0x0
   14000230e:	48 83 c4 20          	add    rsp,0x20
   140002312:	5b                   	pop    rbx
   140002313:	c3                   	ret
   140002314:	cc                   	int3
   140002315:	cc                   	int3
   140002316:	cc                   	int3
   140002317:	cc                   	int3
   140002318:	cc                   	int3
   140002319:	cc                   	int3
   14000231a:	cc                   	int3
   14000231b:	cc                   	int3
   14000231c:	cc                   	int3
   14000231d:	cc                   	int3
   14000231e:	cc                   	int3
   14000231f:	cc                   	int3
   140002320:	4c 89 4c 24 20       	mov    QWORD PTR [rsp+0x20],r9
   140002325:	4c 89 44 24 18       	mov    QWORD PTR [rsp+0x18],r8
   14000232a:	48 89 54 24 10       	mov    QWORD PTR [rsp+0x10],rdx
   14000232f:	55                   	push   rbp
   140002330:	56                   	push   rsi
   140002331:	41 54                	push   r12
   140002333:	41 55                	push   r13
   140002335:	41 56                	push   r14
   140002337:	41 57                	push   r15
   140002339:	48 8d ac 24 68 ff ff 	lea    rbp,[rsp-0x98]
   140002340:	ff 
   140002341:	48 81 ec 98 01 00 00 	sub    rsp,0x198
   140002348:	44 8b a5 f8 00 00 00 	mov    r12d,DWORD PTR [rbp+0xf8]
   14000234f:	33 f6                	xor    esi,esi
   140002351:	4c 8b f9             	mov    r15,rcx
   140002354:	44 8b f6             	mov    r14d,esi
   140002357:	41 bd ff ff ff ff    	mov    r13d,0xffffffff
   14000235d:	41 83 fc 01          	cmp    r12d,0x1
   140002361:	75 0b                	jne    0x14000236e
   140002363:	48 8d 4d 88          	lea    rcx,[rbp-0x78]
   140002367:	e8 c4 1f 00 00       	call   0x140004330
   14000236c:	eb 17                	jmp    0x140002385
   14000236e:	45 85 e4             	test   r12d,r12d
   140002371:	0f 85 36 03 00 00    	jne    0x1400026ad
   140002377:	e8 44 1e 00 00       	call   0x1400041c0
   14000237c:	48 8d 4d 88          	lea    rcx,[rbp-0x78]
   140002380:	e8 7b 22 00 00       	call   0x140004600
   140002385:	0f 57 c0             	xorps  xmm0,xmm0
   140002388:	48 89 9c 24 d0 01 00 	mov    QWORD PTR [rsp+0x1d0],rbx
   14000238f:	00 
   140002390:	33 c0                	xor    eax,eax
   140002392:	48 89 bc 24 90 01 00 	mov    QWORD PTR [rsp+0x190],rdi
   140002399:	00 
   14000239a:	48 8d 4d c0          	lea    rcx,[rbp-0x40]
   14000239e:	48 89 45 40          	mov    QWORD PTR [rbp+0x40],rax
   1400023a2:	0f 11 45 c0          	movups XMMWORD PTR [rbp-0x40],xmm0
   1400023a6:	89 74 24 60          	mov    DWORD PTR [rsp+0x60],esi
   1400023aa:	0f 11 45 d0          	movups XMMWORD PTR [rbp-0x30],xmm0
   1400023ae:	48 89 74 24 68       	mov    QWORD PTR [rsp+0x68],rsi
   1400023b3:	0f 11 45 e0          	movups XMMWORD PTR [rbp-0x20],xmm0
   1400023b7:	0f 11 45 f0          	movups XMMWORD PTR [rbp-0x10],xmm0
   1400023bb:	0f 11 45 00          	movups XMMWORD PTR [rbp+0x0],xmm0
   1400023bf:	0f 11 45 10          	movups XMMWORD PTR [rbp+0x10],xmm0
   1400023c3:	0f 11 45 20          	movups XMMWORD PTR [rbp+0x20],xmm0
   1400023c7:	0f 11 45 30          	movups XMMWORD PTR [rbp+0x30],xmm0
   1400023cb:	e8 10 17 00 00       	call   0x140003ae0
   1400023d0:	8b 55 88             	mov    edx,DWORD PTR [rbp-0x78]
   1400023d3:	49 8d bf 00 00 05 00 	lea    rdi,[r15+0x50000]
   1400023da:	48 8b cf             	mov    rcx,rdi
   1400023dd:	ff 17                	call   QWORD PTR [rdi]
   1400023df:	48 8b d8             	mov    rbx,rax
   1400023e2:	48 8d 4c 24 70       	lea    rcx,[rsp+0x70]
   1400023e7:	8b 45 88             	mov    eax,DWORD PTR [rbp-0x78]
   1400023ea:	48 89 44 24 40       	mov    QWORD PTR [rsp+0x40],rax
   1400023ef:	ff 55 90             	call   QWORD PTR [rbp-0x70]
   1400023f2:	48 8b 8d e0 00 00 00 	mov    rcx,QWORD PTR [rbp+0xe0]
   1400023f9:	4c 8d 44 24 40       	lea    r8,[rsp+0x40]
   1400023fe:	48 8b d3             	mov    rdx,rbx
   140002401:	ff 95 d8 00 00 00    	call   QWORD PTR [rbp+0xd8]
   140002407:	85 c0                	test   eax,eax
   140002409:	0f 85 87 02 00 00    	jne    0x140002696
   14000240f:	8b 45 88             	mov    eax,DWORD PTR [rbp-0x78]
   140002412:	48 39 44 24 40       	cmp    QWORD PTR [rsp+0x40],rax
   140002417:	0f 85 79 02 00 00    	jne    0x140002696
   14000241d:	48 8d 54 24 70       	lea    rdx,[rsp+0x70]
   140002422:	48 8b cb             	mov    rcx,rbx
   140002425:	ff 55 98             	call   QWORD PTR [rbp-0x68]
   140002428:	48 8b d3             	mov    rdx,rbx
   14000242b:	85 c0                	test   eax,eax
   14000242d:	74 31                	je     0x140002460
   14000242f:	48 8b cf             	mov    rcx,rdi
   140002432:	41 ff 97 08 00 05 00 	call   QWORD PTR [r15+0x50008]
   140002439:	b8 10 00 00 00       	mov    eax,0x10
   14000243e:	48 8b 9c 24 d0 01 00 	mov    rbx,QWORD PTR [rsp+0x1d0]
   140002445:	00 
   140002446:	48 8b bc 24 90 01 00 	mov    rdi,QWORD PTR [rsp+0x190]
   14000244d:	00 
   14000244e:	48 81 c4 98 01 00 00 	add    rsp,0x198
   140002455:	41 5f                	pop    r15
   140002457:	41 5e                	pop    r14
   140002459:	41 5d                	pop    r13
   14000245b:	41 5c                	pop    r12
   14000245d:	5e                   	pop    rsi
   14000245e:	5d                   	pop    rbp
   14000245f:	c3                   	ret
   140002460:	45 85 e4             	test   r12d,r12d
   140002463:	75 1b                	jne    0x140002480
   140002465:	48 8d 4d 50          	lea    rcx,[rbp+0x50]
   140002469:	e8 c2 1e 00 00       	call   0x140004330
   14000246e:	48 8d 54 24 70       	lea    rdx,[rsp+0x70]
   140002473:	48 8d 4c 24 50       	lea    rcx,[rsp+0x50]
   140002478:	ff 55 68             	call   QWORD PTR [rbp+0x68]
   14000247b:	48 8d 54 24 50       	lea    rdx,[rsp+0x50]
   140002480:	4c 8b cf             	mov    r9,rdi
   140002483:	48 8d 4d c0          	lea    rcx,[rbp-0x40]
   140002487:	41 b8 05 00 00 00    	mov    r8d,0x5
   14000248d:	e8 3e 02 00 00       	call   0x1400026d0
   140002492:	48 8b d3             	mov    rdx,rbx
   140002495:	48 8b cf             	mov    rcx,rdi
   140002498:	41 ff 97 08 00 05 00 	call   QWORD PTR [r15+0x50008]
   14000249f:	48 8b 9d e0 00 00 00 	mov    rbx,QWORD PTR [rbp+0xe0]
   1400024a6:	4c 8d 44 24 50       	lea    r8,[rsp+0x50]
   1400024ab:	48 8b bd d8 00 00 00 	mov    rdi,QWORD PTR [rbp+0xd8]
   1400024b2:	48 8b cb             	mov    rcx,rbx
   1400024b5:	49 8b d7             	mov    rdx,r15
   1400024b8:	48 c7 44 24 48 00 00 	mov    QWORD PTR [rsp+0x48],0x40000
   1400024bf:	04 00 
   1400024c1:	48 c7 44 24 50 00 00 	mov    QWORD PTR [rsp+0x50],0x10000
   1400024c8:	01 00 
   1400024ca:	ff d7                	call   rdi
   1400024cc:	85 c0                	test   eax,eax
   1400024ce:	0f 85 6e 01 00 00    	jne    0x140002642
   1400024d4:	0f 1f 40 00          	nop    DWORD PTR [rax+0x0]
   1400024d8:	0f 1f 84 00 00 00 00 	nop    DWORD PTR [rax+rax*1+0x0]
   1400024df:	00 
   1400024e0:	48 8b 44 24 50       	mov    rax,QWORD PTR [rsp+0x50]
   1400024e5:	48 85 c0             	test   rax,rax
   1400024e8:	0f 84 a1 01 00 00    	je     0x14000268f
   1400024ee:	48 89 44 24 40       	mov    QWORD PTR [rsp+0x40],rax
   1400024f3:	48 8b de             	mov    rbx,rsi
   1400024f6:	89 b5 f8 00 00 00    	mov    DWORD PTR [rbp+0xf8],esi
   1400024fc:	0f 1f 40 00          	nop    DWORD PTR [rax+0x0]
   140002500:	48 8d 85 f8 00 00 00 	lea    rax,[rbp+0xf8]
   140002507:	48 89 44 24 30       	mov    QWORD PTR [rsp+0x30],rax
   14000250c:	4e 8d 0c 3b          	lea    r9,[rbx+r15*1]
   140002510:	48 8d 44 24 40       	lea    rax,[rsp+0x40]
   140002515:	89 74 24 28          	mov    DWORD PTR [rsp+0x28],esi
   140002519:	4c 8d 44 24 48       	lea    r8,[rsp+0x48]
   14000251e:	48 89 44 24 20       	mov    QWORD PTR [rsp+0x20],rax
   140002523:	49 8d 97 00 00 01 00 	lea    rdx,[r15+0x10000]
   14000252a:	48 8d 4d c0          	lea    rcx,[rbp-0x40]
   14000252e:	e8 3d 11 00 00       	call   0x140003670
   140002533:	85 c0                	test   eax,eax
   140002535:	0f 85 2a 01 00 00    	jne    0x140002665
   14000253b:	4c 8b 44 24 48       	mov    r8,QWORD PTR [rsp+0x48]
   140002540:	45 85 e4             	test   r12d,r12d
   140002543:	75 1c                	jne    0x140002561
   140002545:	4d 85 c0             	test   r8,r8
   140002548:	74 17                	je     0x140002561
   14000254a:	49 8d 97 00 00 01 00 	lea    rdx,[r15+0x10000]
   140002551:	41 8b cd             	mov    ecx,r13d
   140002554:	e8 17 1d 00 00       	call   0x140004270
   140002559:	4c 8b 44 24 48       	mov    r8,QWORD PTR [rsp+0x48]
   14000255e:	44 8b e8             	mov    r13d,eax
   140002561:	48 8b 8d f0 00 00 00 	mov    rcx,QWORD PTR [rbp+0xf0]
   140002568:	49 8d 97 00 00 01 00 	lea    rdx,[r15+0x10000]
   14000256f:	4d 03 f0             	add    r14,r8
   140002572:	ff 95 e8 00 00 00    	call   QWORD PTR [rbp+0xe8]
   140002578:	48 3b 44 24 48       	cmp    rax,QWORD PTR [rsp+0x48]
   14000257d:	0f 85 db 00 00 00    	jne    0x14000265e
   140002583:	48 8b 4c 24 40       	mov    rcx,QWORD PTR [rsp+0x40]
   140002588:	48 8b 44 24 50       	mov    rax,QWORD PTR [rsp+0x50]
   14000258d:	48 03 d9             	add    rbx,rcx
   140002590:	48 3b d8             	cmp    rbx,rax
   140002593:	73 5c                	jae    0x1400025f1
   140002595:	48 8b c8             	mov    rcx,rax
   140002598:	48 2b cb             	sub    rcx,rbx
   14000259b:	83 bd f8 00 00 00 01 	cmp    DWORD PTR [rbp+0xf8],0x1
   1400025a2:	48 89 4c 24 40       	mov    QWORD PTR [rsp+0x40],rcx
   1400025a7:	0f 85 53 ff ff ff    	jne    0x140002500
   1400025ad:	8b 55 a8             	mov    edx,DWORD PTR [rbp-0x58]
   1400025b0:	85 d2                	test   edx,edx
   1400025b2:	0f 84 c2 00 00 00    	je     0x14000267a
   1400025b8:	48 3b ca             	cmp    rcx,rdx
   1400025bb:	72 17                	jb     0x1400025d4
   1400025bd:	48 8b 45 b8          	mov    rax,QWORD PTR [rbp-0x48]
   1400025c1:	48 85 c0             	test   rax,rax
   1400025c4:	74 0e                	je     0x1400025d4
   1400025c6:	4a 8d 0c 3b          	lea    rcx,[rbx+r15*1]
   1400025ca:	48 8d 54 24 60       	lea    rdx,[rsp+0x60]
   1400025cf:	ff d0                	call   rax
   1400025d1:	8b 55 a8             	mov    edx,DWORD PTR [rbp-0x58]
   1400025d4:	85 d2                	test   edx,edx
   1400025d6:	0f 84 9e 00 00 00    	je     0x14000267a
   1400025dc:	41 f7 d5             	not    r13d
   1400025df:	44 39 6c 24 60       	cmp    DWORD PTR [rsp+0x60],r13d
   1400025e4:	0f 84 82 00 00 00    	je     0x14000266c
   1400025ea:	be 13 00 00 00       	mov    esi,0x13
   1400025ef:	eb 56                	jmp    0x140002647
   1400025f1:	83 bd f8 00 00 00 01 	cmp    DWORD PTR [rbp+0xf8],0x1
   1400025f8:	74 b3                	je     0x1400025ad
   1400025fa:	48 8b 9d e0 00 00 00 	mov    rbx,QWORD PTR [rbp+0xe0]
   140002601:	48 8b bd d8 00 00 00 	mov    rdi,QWORD PTR [rbp+0xd8]
   140002608:	40 38 74 24 73       	cmp    BYTE PTR [rsp+0x73],sil
   14000260d:	75 07                	jne    0x140002616
   14000260f:	4c 3b 74 24 78       	cmp    r14,QWORD PTR [rsp+0x78]
   140002614:	73 bb                	jae    0x1400025d1
   140002616:	4c 8d 44 24 50       	lea    r8,[rsp+0x50]
   14000261b:	48 c7 44 24 48 00 00 	mov    QWORD PTR [rsp+0x48],0x40000
   140002622:	04 00 
   140002624:	49 8b d7             	mov    rdx,r15
   140002627:	48 c7 44 24 50 00 00 	mov    QWORD PTR [rsp+0x50],0x10000
   14000262e:	01 00 
   140002630:	48 8b cb             	mov    rcx,rbx
   140002633:	48 89 74 24 40       	mov    QWORD PTR [rsp+0x40],rsi
   140002638:	ff d7                	call   rdi
   14000263a:	85 c0                	test   eax,eax
   14000263c:	0f 84 9e fe ff ff    	je     0x1400024e0
   140002642:	be 0e 00 00 00       	mov    esi,0xe
   140002647:	49 8d 97 00 00 05 00 	lea    rdx,[r15+0x50000]
   14000264e:	48 8d 4d c0          	lea    rcx,[rbp-0x40]
   140002652:	e8 49 14 00 00       	call   0x140003aa0
   140002657:	8b c6                	mov    eax,esi
   140002659:	e9 e0 fd ff ff       	jmp    0x14000243e
   14000265e:	be 0f 00 00 00       	mov    esi,0xf
   140002663:	eb e2                	jmp    0x140002647
   140002665:	be 11 00 00 00       	mov    esi,0x11
   14000266a:	eb db                	jmp    0x140002647
   14000266c:	4c 39 74 24 68       	cmp    QWORD PTR [rsp+0x68],r14
   140002671:	74 d4                	je     0x140002647
   140002673:	be 14 00 00 00       	mov    esi,0x14
   140002678:	eb cd                	jmp    0x140002647
   14000267a:	40 38 74 24 73       	cmp    BYTE PTR [rsp+0x73],sil
   14000267f:	75 c6                	jne    0x140002647
   140002681:	4c 39 74 24 78       	cmp    QWORD PTR [rsp+0x78],r14
   140002686:	74 bf                	je     0x140002647
   140002688:	be 14 00 00 00       	mov    esi,0x14
   14000268d:	eb b8                	jmp    0x140002647
   14000268f:	be 12 00 00 00       	mov    esi,0x12
   140002694:	eb b1                	jmp    0x140002647
   140002696:	48 8b d3             	mov    rdx,rbx
   140002699:	48 8b cf             	mov    rcx,rdi
   14000269c:	41 ff 97 08 00 05 00 	call   QWORD PTR [r15+0x50008]
   1400026a3:	b8 0e 00 00 00       	mov    eax,0xe
   1400026a8:	e9 91 fd ff ff       	jmp    0x14000243e
   1400026ad:	b8 0a 00 00 00       	mov    eax,0xa
   1400026b2:	48 81 c4 98 01 00 00 	add    rsp,0x198
   1400026b9:	41 5f                	pop    r15
   1400026bb:	41 5e                	pop    r14
   1400026bd:	41 5d                	pop    r13
   1400026bf:	41 5c                	pop    r12
   1400026c1:	5e                   	pop    rsi
   1400026c2:	5d                   	pop    rbp
   1400026c3:	c3                   	ret
   1400026c4:	cc                   	int3
   1400026c5:	cc                   	int3
   1400026c6:	cc                   	int3
   1400026c7:	cc                   	int3
   1400026c8:	cc                   	int3
   1400026c9:	cc                   	int3
   1400026ca:	cc                   	int3
   1400026cb:	cc                   	int3
   1400026cc:	cc                   	int3
   1400026cd:	cc                   	int3
   1400026ce:	cc                   	int3
   1400026cf:	cc                   	int3
   1400026d0:	48 89 5c 24 10       	mov    QWORD PTR [rsp+0x10],rbx
   1400026d5:	48 89 74 24 18       	mov    QWORD PTR [rsp+0x18],rsi
   1400026da:	57                   	push   rdi
   1400026db:	48 83 ec 30          	sub    rsp,0x30
   1400026df:	49 8b f1             	mov    rsi,r9
   1400026e2:	48 8b f9             	mov    rdi,rcx
   1400026e5:	41 83 f8 05          	cmp    r8d,0x5
   1400026e9:	72 34                	jb     0x14000271f
   1400026eb:	0f b6 42 03          	movzx  eax,BYTE PTR [rdx+0x3]
   1400026ef:	0f b6 5a 04          	movzx  ebx,BYTE PTR [rdx+0x4]
   1400026f3:	c1 e3 08             	shl    ebx,0x8
   1400026f6:	0b d8                	or     ebx,eax
   1400026f8:	0f b6 42 02          	movzx  eax,BYTE PTR [rdx+0x2]
   1400026fc:	c1 e3 08             	shl    ebx,0x8
   1400026ff:	0b d8                	or     ebx,eax
   140002701:	0f b6 42 01          	movzx  eax,BYTE PTR [rdx+0x1]
   140002705:	c1 e3 08             	shl    ebx,0x8
   140002708:	0b d8                	or     ebx,eax
   14000270a:	b8 00 10 00 00       	mov    eax,0x1000
   14000270f:	3b d8                	cmp    ebx,eax
   140002711:	0f 42 d8             	cmovb  ebx,eax
   140002714:	0f b6 02             	movzx  eax,BYTE PTR [rdx]
   140002717:	89 5c 24 2c          	mov    DWORD PTR [rsp+0x2c],ebx
   14000271b:	3c e1                	cmp    al,0xe1
   14000271d:	72 15                	jb     0x140002734
   14000271f:	b8 04 00 00 00       	mov    eax,0x4
   140002724:	48 8b 5c 24 48       	mov    rbx,QWORD PTR [rsp+0x48]
   140002729:	48 8b 74 24 50       	mov    rsi,QWORD PTR [rsp+0x50]
   14000272e:	48 83 c4 30          	add    rsp,0x30
   140002732:	5f                   	pop    rdi
   140002733:	c3                   	ret
   140002734:	44 8b c0             	mov    r8d,eax
   140002737:	48 89 6c 24 40       	mov    QWORD PTR [rsp+0x40],rbp
   14000273c:	b8 39 8e e3 38       	mov    eax,0x38e38e39
   140002741:	45 8b c8             	mov    r9d,r8d
   140002744:	41 f7 e0             	mul    r8d
   140002747:	b8 39 8e e3 38       	mov    eax,0x38e38e39
   14000274c:	bd 00 03 00 00       	mov    ebp,0x300
   140002751:	d1 ea                	shr    edx,1
   140002753:	8d 0c d2             	lea    ecx,[rdx+rdx*8]
   140002756:	41 f7 e0             	mul    r8d
   140002759:	44 2b c9             	sub    r9d,ecx
   14000275c:	b8 cd cc cc cc       	mov    eax,0xcccccccd
   140002761:	d1 ea                	shr    edx,1
   140002763:	0f b6 ca             	movzx  ecx,dl
   140002766:	f7 e1                	mul    ecx
   140002768:	b8 cd cc cc cc       	mov    eax,0xcccccccd
   14000276d:	44 89 4c 24 20       	mov    DWORD PTR [rsp+0x20],r9d
   140002772:	c1 ea 02             	shr    edx,0x2
   140002775:	89 54 24 28          	mov    DWORD PTR [rsp+0x28],edx
   140002779:	f7 e1                	mul    ecx
   14000277b:	c1 ea 02             	shr    edx,0x2
   14000277e:	8d 04 92             	lea    eax,[rdx+rdx*4]
   140002781:	48 8b 57 10          	mov    rdx,QWORD PTR [rdi+0x10]
   140002785:	2b c8                	sub    ecx,eax
   140002787:	89 4c 24 24          	mov    DWORD PTR [rsp+0x24],ecx
   14000278b:	41 03 c9             	add    ecx,r9d
   14000278e:	d3 e5                	shl    ebp,cl
   140002790:	81 c5 36 07 00 00    	add    ebp,0x736
   140002796:	48 85 d2             	test   rdx,rdx
   140002799:	74 05                	je     0x1400027a0
   14000279b:	3b 6f 68             	cmp    ebp,DWORD PTR [rdi+0x68]
   14000279e:	74 24                	je     0x1400027c4
   1400027a0:	48 8b ce             	mov    rcx,rsi
   1400027a3:	ff 56 08             	call   QWORD PTR [rsi+0x8]
   1400027a6:	8b d5                	mov    edx,ebp
   1400027a8:	48 8b ce             	mov    rcx,rsi
   1400027ab:	48 03 d2             	add    rdx,rdx
   1400027ae:	48 c7 47 10 00 00 00 	mov    QWORD PTR [rdi+0x10],0x0
   1400027b5:	00 
   1400027b6:	ff 16                	call   QWORD PTR [rsi]
   1400027b8:	48 89 47 10          	mov    QWORD PTR [rdi+0x10],rax
   1400027bc:	89 6f 68             	mov    DWORD PTR [rdi+0x68],ebp
   1400027bf:	48 85 c0             	test   rax,rax
   1400027c2:	74 45                	je     0x140002809
   1400027c4:	48 8b 57 18          	mov    rdx,QWORD PTR [rdi+0x18]
   1400027c8:	8b eb                	mov    ebp,ebx
   1400027ca:	48 8d 5f 38          	lea    rbx,[rdi+0x38]
   1400027ce:	48 85 d2             	test   rdx,rdx
   1400027d1:	74 05                	je     0x1400027d8
   1400027d3:	48 3b 2b             	cmp    rbp,QWORD PTR [rbx]
   1400027d6:	74 38                	je     0x140002810
   1400027d8:	48 8b ce             	mov    rcx,rsi
   1400027db:	ff 56 08             	call   QWORD PTR [rsi+0x8]
   1400027de:	48 8b d5             	mov    rdx,rbp
   1400027e1:	48 c7 47 18 00 00 00 	mov    QWORD PTR [rdi+0x18],0x0
   1400027e8:	00 
   1400027e9:	48 8b ce             	mov    rcx,rsi
   1400027ec:	ff 16                	call   QWORD PTR [rsi]
   1400027ee:	48 89 47 18          	mov    QWORD PTR [rdi+0x18],rax
   1400027f2:	48 85 c0             	test   rax,rax
   1400027f5:	75 19                	jne    0x140002810
   1400027f7:	48 8b 57 10          	mov    rdx,QWORD PTR [rdi+0x10]
   1400027fb:	48 8b ce             	mov    rcx,rsi
   1400027fe:	ff 56 08             	call   QWORD PTR [rsi+0x8]
   140002801:	48 c7 47 10 00 00 00 	mov    QWORD PTR [rdi+0x10],0x0
   140002808:	00 
   140002809:	b8 02 00 00 00       	mov    eax,0x2
   14000280e:	eb 0d                	jmp    0x14000281d
   140002810:	0f 10 44 24 20       	movups xmm0,XMMWORD PTR [rsp+0x20]
   140002815:	48 89 2b             	mov    QWORD PTR [rbx],rbp
   140002818:	33 c0                	xor    eax,eax
   14000281a:	0f 11 07             	movups XMMWORD PTR [rdi],xmm0
   14000281d:	48 8b 6c 24 40       	mov    rbp,QWORD PTR [rsp+0x40]
   140002822:	48 8b 5c 24 48       	mov    rbx,QWORD PTR [rsp+0x48]
   140002827:	48 8b 74 24 50       	mov    rsi,QWORD PTR [rsp+0x50]
   14000282c:	48 83 c4 30          	add    rsp,0x30
   140002830:	5f                   	pop    rdi
   140002831:	c3                   	ret
   140002832:	cc                   	int3
   140002833:	cc                   	int3
   140002834:	cc                   	int3
   140002835:	cc                   	int3
   140002836:	cc                   	int3
   140002837:	cc                   	int3
   140002838:	cc                   	int3
   140002839:	cc                   	int3
   14000283a:	cc                   	int3
   14000283b:	cc                   	int3
   14000283c:	cc                   	int3
   14000283d:	cc                   	int3
   14000283e:	cc                   	int3
   14000283f:	cc                   	int3
   140002840:	4c 89 44 24 18       	mov    QWORD PTR [rsp+0x18],r8
   140002845:	48 89 54 24 10       	mov    QWORD PTR [rsp+0x10],rdx
   14000284a:	48 89 4c 24 08       	mov    QWORD PTR [rsp+0x8],rcx
   14000284f:	53                   	push   rbx
   140002850:	55                   	push   rbp
   140002851:	56                   	push   rsi
   140002852:	57                   	push   rdi
   140002853:	41 54                	push   r12
   140002855:	41 55                	push   r13
   140002857:	41 56                	push   r14
   140002859:	41 57                	push   r15
   14000285b:	48 83 ec 48          	sub    rsp,0x48
   14000285f:	8b 41 4c             	mov    eax,DWORD PTR [rcx+0x4c]
   140002862:	4c 8b d1             	mov    r10,rcx
   140002865:	8b 71 58             	mov    esi,DWORD PTR [rcx+0x58]
   140002868:	ba 01 00 00 00       	mov    edx,0x1
   14000286d:	48 8b 69 10          	mov    rbp,QWORD PTR [rcx+0x10]
   140002871:	45 33 ff             	xor    r15d,r15d
   140002874:	44 8b 69 48          	mov    r13d,DWORD PTR [rcx+0x48]
   140002878:	41 8b 1a             	mov    ebx,DWORD PTR [r10]
   14000287b:	4d 8b 72 18          	mov    r14,QWORD PTR [r10+0x18]
   14000287f:	45 8b 42 40          	mov    r8d,DWORD PTR [r10+0x40]
   140002883:	4d 8b 62 30          	mov    r12,QWORD PTR [r10+0x30]
   140002887:	4d 8b 5a 20          	mov    r11,QWORD PTR [r10+0x20]
   14000288b:	45 8b 4a 28          	mov    r9d,DWORD PTR [r10+0x28]
   14000288f:	89 04 24             	mov    DWORD PTR [rsp],eax
   140002892:	8b 41 50             	mov    eax,DWORD PTR [rcx+0x50]
   140002895:	89 44 24 04          	mov    DWORD PTR [rsp+0x4],eax
   140002899:	8b 41 54             	mov    eax,DWORD PTR [rcx+0x54]
   14000289c:	8b 49 08             	mov    ecx,DWORD PTR [rcx+0x8]
   14000289f:	89 44 24 08          	mov    DWORD PTR [rsp+0x8],eax
   1400028a3:	b8 01 00 00 00       	mov    eax,0x1
   1400028a8:	d3 e2                	shl    edx,cl
   1400028aa:	41 8b 4a 04          	mov    ecx,DWORD PTR [r10+0x4]
   1400028ae:	ff ca                	dec    edx
   1400028b0:	d3 e0                	shl    eax,cl
   1400028b2:	b9 08 00 00 00       	mov    ecx,0x8
   1400028b7:	ff c8                	dec    eax
   1400028b9:	89 74 24 0c          	mov    DWORD PTR [rsp+0xc],esi
   1400028bd:	89 44 24 24          	mov    DWORD PTR [rsp+0x24],eax
   1400028c1:	2a cb                	sub    cl,bl
   1400028c3:	49 8b 42 38          	mov    rax,QWORD PTR [r10+0x38]
   1400028c7:	48 89 44 24 18       	mov    QWORD PTR [rsp+0x18],rax
   1400028cc:	41 8b 42 44          	mov    eax,DWORD PTR [r10+0x44]
   1400028d0:	89 44 24 10          	mov    DWORD PTR [rsp+0x10],eax
   1400028d4:	41 8b 42 2c          	mov    eax,DWORD PTR [r10+0x2c]
   1400028d8:	89 54 24 2c          	mov    DWORD PTR [rsp+0x2c],edx
   1400028dc:	89 5c 24 28          	mov    DWORD PTR [rsp+0x28],ebx
   1400028e0:	4c 89 74 24 30       	mov    QWORD PTR [rsp+0x30],r14
   1400028e5:	44 89 84 24 a8 00 00 	mov    DWORD PTR [rsp+0xa8],r8d
   1400028ec:	00 
   1400028ed:	89 4c 24 20          	mov    DWORD PTR [rsp+0x20],ecx
   1400028f1:	41 8b dd             	mov    ebx,r13d
   1400028f4:	41 8b f8             	mov    edi,r8d
   1400028f7:	23 fa                	and    edi,edx
   1400028f9:	c1 e3 04             	shl    ebx,0x4
   1400028fc:	8b cf                	mov    ecx,edi
   1400028fe:	48 03 d9             	add    rbx,rcx
   140002901:	0f b7 54 5d 00       	movzx  edx,WORD PTR [rbp+rbx*2+0x0]
   140002906:	41 81 f9 00 00 00 01 	cmp    r9d,0x1000000
   14000290d:	73 10                	jae    0x14000291f
   14000290f:	41 0f b6 0b          	movzx  ecx,BYTE PTR [r11]
   140002913:	c1 e0 08             	shl    eax,0x8
   140002916:	0b c1                	or     eax,ecx
   140002918:	41 c1 e1 08          	shl    r9d,0x8
   14000291c:	49 ff c3             	inc    r11
   14000291f:	41 8b c9             	mov    ecx,r9d
   140002922:	c1 e9 0b             	shr    ecx,0xb
   140002925:	0f af ca             	imul   ecx,edx
   140002928:	3b c1                	cmp    eax,ecx
   14000292a:	0f 83 c6 01 00 00    	jae    0x140002af6
   140002930:	44 8b c9             	mov    r9d,ecx
   140002933:	4c 8d b5 6c 0e 00 00 	lea    r14,[rbp+0xe6c]
   14000293a:	b9 00 08 00 00       	mov    ecx,0x800
   14000293f:	2b ca                	sub    ecx,edx
   140002941:	c1 e9 05             	shr    ecx,0x5
   140002944:	66 03 ca             	add    cx,dx
   140002947:	83 7c 24 10 00       	cmp    DWORD PTR [rsp+0x10],0x0
   14000294c:	66 89 4c 5d 00       	mov    WORD PTR [rbp+rbx*2+0x0],cx
   140002951:	75 05                	jne    0x140002958
   140002953:	45 85 c0             	test   r8d,r8d
   140002956:	74 43                	je     0x14000299b
   140002958:	48 8b 54 24 30       	mov    rdx,QWORD PTR [rsp+0x30]
   14000295d:	4d 85 e4             	test   r12,r12
   140002960:	48 8b 7c 24 18       	mov    rdi,QWORD PTR [rsp+0x18]
   140002965:	49 8b cc             	mov    rcx,r12
   140002968:	48 0f 44 cf          	cmove  rcx,rdi
   14000296c:	44 0f b6 44 11 ff    	movzx  r8d,BYTE PTR [rcx+rdx*1-0x1]
   140002972:	0f b6 4c 24 20       	movzx  ecx,BYTE PTR [rsp+0x20]
   140002977:	8b 94 24 a8 00 00 00 	mov    edx,DWORD PTR [rsp+0xa8]
   14000297e:	23 54 24 24          	and    edx,DWORD PTR [rsp+0x24]
   140002982:	41 d3 e8             	shr    r8d,cl
   140002985:	8b 4c 24 28          	mov    ecx,DWORD PTR [rsp+0x28]
   140002989:	d3 e2                	shl    edx,cl
   14000298b:	44 03 c2             	add    r8d,edx
   14000298e:	43 8d 0c 40          	lea    ecx,[r8+r8*2]
   140002992:	c1 e1 08             	shl    ecx,0x8
   140002995:	4d 8d 34 4e          	lea    r14,[r14+rcx*2]
   140002999:	eb 05                	jmp    0x1400029a0
   14000299b:	48 8b 7c 24 18       	mov    rdi,QWORD PTR [rsp+0x18]
   1400029a0:	41 b8 01 00 00 00    	mov    r8d,0x1
   1400029a6:	41 83 fd 07          	cmp    r13d,0x7
   1400029aa:	73 70                	jae    0x140002a1c
   1400029ac:	0f 1f 40 00          	nop    DWORD PTR [rax+0x0]
   1400029b0:	41 8b c8             	mov    ecx,r8d
   1400029b3:	41 0f b7 14 4e       	movzx  edx,WORD PTR [r14+rcx*2]
   1400029b8:	4d 8d 14 4e          	lea    r10,[r14+rcx*2]
   1400029bc:	41 81 f9 00 00 00 01 	cmp    r9d,0x1000000
   1400029c3:	73 10                	jae    0x1400029d5
   1400029c5:	41 0f b6 0b          	movzx  ecx,BYTE PTR [r11]
   1400029c9:	c1 e0 08             	shl    eax,0x8
   1400029cc:	0b c1                	or     eax,ecx
   1400029ce:	41 c1 e1 08          	shl    r9d,0x8
   1400029d2:	49 ff c3             	inc    r11
   1400029d5:	41 8b c9             	mov    ecx,r9d
   1400029d8:	45 03 c0             	add    r8d,r8d
   1400029db:	c1 e9 0b             	shr    ecx,0xb
   1400029de:	0f af ca             	imul   ecx,edx
   1400029e1:	3b c1                	cmp    eax,ecx
   1400029e3:	73 12                	jae    0x1400029f7
   1400029e5:	44 8b c9             	mov    r9d,ecx
   1400029e8:	b9 00 08 00 00       	mov    ecx,0x800
   1400029ed:	2b ca                	sub    ecx,edx
   1400029ef:	c1 e9 05             	shr    ecx,0x5
   1400029f2:	66 03 ca             	add    cx,dx
   1400029f5:	eb 13                	jmp    0x140002a0a
   1400029f7:	44 2b c9             	sub    r9d,ecx
   1400029fa:	2b c1                	sub    eax,ecx
   1400029fc:	8b ca                	mov    ecx,edx
   1400029fe:	41 ff c0             	inc    r8d
   140002a01:	c1 e9 05             	shr    ecx,0x5
   140002a04:	66 2b d1             	sub    dx,cx
   140002a07:	0f b7 ca             	movzx  ecx,dx
   140002a0a:	66 41 89 0a          	mov    WORD PTR [r10],cx
   140002a0e:	41 81 f8 00 01 00 00 	cmp    r8d,0x100
   140002a15:	72 99                	jb     0x1400029b0
   140002a17:	e9 a7 00 00 00       	jmp    0x140002ac3
   140002a1c:	8b 0c 24             	mov    ecx,DWORD PTR [rsp]
   140002a1f:	33 d2                	xor    edx,edx
   140002a21:	4c 3b e1             	cmp    r12,rcx
   140002a24:	bb 00 01 00 00       	mov    ebx,0x100
   140002a29:	48 0f 42 d7          	cmovb  rdx,rdi
   140002a2d:	48 2b d1             	sub    rdx,rcx
   140002a30:	49 03 52 18          	add    rdx,QWORD PTR [r10+0x18]
   140002a34:	42 0f b6 34 22       	movzx  esi,BYTE PTR [rdx+r12*1]
   140002a39:	0f 1f 80 00 00 00 00 	nop    DWORD PTR [rax+0x0]
   140002a40:	03 f6                	add    esi,esi
   140002a42:	8b cb                	mov    ecx,ebx
   140002a44:	44 8b d3             	mov    r10d,ebx
   140002a47:	44 23 d6             	and    r10d,esi
   140002a4a:	41 8b d2             	mov    edx,r10d
   140002a4d:	48 03 d1             	add    rdx,rcx
   140002a50:	41 8b c8             	mov    ecx,r8d
   140002a53:	48 03 d1             	add    rdx,rcx
   140002a56:	49 8d 3c 56          	lea    rdi,[r14+rdx*2]
   140002a5a:	41 0f b7 14 56       	movzx  edx,WORD PTR [r14+rdx*2]
   140002a5f:	41 81 f9 00 00 00 01 	cmp    r9d,0x1000000
   140002a66:	73 10                	jae    0x140002a78
   140002a68:	41 0f b6 0b          	movzx  ecx,BYTE PTR [r11]
   140002a6c:	c1 e0 08             	shl    eax,0x8
   140002a6f:	0b c1                	or     eax,ecx
   140002a71:	41 c1 e1 08          	shl    r9d,0x8
   140002a75:	49 ff c3             	inc    r11
   140002a78:	41 8b c9             	mov    ecx,r9d
   140002a7b:	45 03 c0             	add    r8d,r8d
   140002a7e:	c1 e9 0b             	shr    ecx,0xb
   140002a81:	0f af ca             	imul   ecx,edx
   140002a84:	3b c1                	cmp    eax,ecx
   140002a86:	73 15                	jae    0x140002a9d
   140002a88:	44 8b c9             	mov    r9d,ecx
   140002a8b:	41 f7 d2             	not    r10d
   140002a8e:	b9 00 08 00 00       	mov    ecx,0x800
   140002a93:	2b ca                	sub    ecx,edx
   140002a95:	c1 e9 05             	shr    ecx,0x5
   140002a98:	66 03 ca             	add    cx,dx
   140002a9b:	eb 13                	jmp    0x140002ab0
   140002a9d:	44 2b c9             	sub    r9d,ecx
   140002aa0:	2b c1                	sub    eax,ecx
   140002aa2:	8b ca                	mov    ecx,edx
   140002aa4:	41 ff c0             	inc    r8d
   140002aa7:	c1 e9 05             	shr    ecx,0x5
   140002aaa:	66 2b d1             	sub    dx,cx
   140002aad:	0f b7 ca             	movzx  ecx,dx
   140002ab0:	41 23 da             	and    ebx,r10d
   140002ab3:	66 89 0f             	mov    WORD PTR [rdi],cx
   140002ab6:	41 81 f8 00 01 00 00 	cmp    r8d,0x100
   140002abd:	72 81                	jb     0x140002a40
   140002abf:	8b 74 24 0c          	mov    esi,DWORD PTR [rsp+0xc]
   140002ac3:	4c 8b 74 24 30       	mov    r14,QWORD PTR [rsp+0x30]
   140002ac8:	48 8d 15 41 36 00 00 	lea    rdx,[rip+0x3641]        # 0x140006110
   140002acf:	41 8b cd             	mov    ecx,r13d
   140002ad2:	47 88 04 34          	mov    BYTE PTR [r12+r14*1],r8b
   140002ad6:	49 ff c4             	inc    r12
   140002ad9:	44 8b 84 24 a8 00 00 	mov    r8d,DWORD PTR [rsp+0xa8]
   140002ae0:	00 
   140002ae1:	44 0f b6 2c 11       	movzx  r13d,BYTE PTR [rcx+rdx*1]
   140002ae6:	41 ff c0             	inc    r8d
   140002ae9:	44 89 84 24 a8 00 00 	mov    DWORD PTR [rsp+0xa8],r8d
   140002af0:	00 
   140002af1:	e9 42 0a 00 00       	jmp    0x140003538
   140002af6:	44 2b c9             	sub    r9d,ecx
   140002af9:	45 8b d5             	mov    r10d,r13d
   140002afc:	2b c1                	sub    eax,ecx
   140002afe:	8b ca                	mov    ecx,edx
   140002b00:	c1 e9 05             	shr    ecx,0x5
   140002b03:	66 2b d1             	sub    dx,cx
   140002b06:	66 89 54 5d 00       	mov    WORD PTR [rbp+rbx*2+0x0],dx
   140002b0b:	42 0f b7 94 55 80 01 	movzx  edx,WORD PTR [rbp+r10*2+0x180]
   140002b12:	00 00 
   140002b14:	41 81 f9 00 00 00 01 	cmp    r9d,0x1000000
   140002b1b:	73 10                	jae    0x140002b2d
   140002b1d:	41 0f b6 0b          	movzx  ecx,BYTE PTR [r11]
   140002b21:	c1 e0 08             	shl    eax,0x8
   140002b24:	0b c1                	or     eax,ecx
   140002b26:	41 c1 e1 08          	shl    r9d,0x8
   140002b2a:	49 ff c3             	inc    r11
   140002b2d:	41 8b c9             	mov    ecx,r9d
   140002b30:	c1 e9 0b             	shr    ecx,0xb
   140002b33:	0f af ca             	imul   ecx,edx
   140002b36:	3b c1                	cmp    eax,ecx
   140002b38:	73 2d                	jae    0x140002b67
   140002b3a:	44 8b c9             	mov    r9d,ecx
   140002b3d:	b9 00 08 00 00       	mov    ecx,0x800
   140002b42:	2b ca                	sub    ecx,edx
   140002b44:	c1 e9 05             	shr    ecx,0x5
   140002b47:	66 03 ca             	add    cx,dx
   140002b4a:	66 42 89 8c 55 80 01 	mov    WORD PTR [rbp+r10*2+0x180],cx
   140002b51:	00 00 
   140002b53:	41 83 c5 0c          	add    r13d,0xc
   140002b57:	b9 64 06 00 00       	mov    ecx,0x664
   140002b5c:	41 ba 08 00 00 00    	mov    r10d,0x8
   140002b62:	e9 41 02 00 00       	jmp    0x140002da8
   140002b67:	44 2b c9             	sub    r9d,ecx
   140002b6a:	2b c1                	sub    eax,ecx
   140002b6c:	8b ca                	mov    ecx,edx
   140002b6e:	c1 e9 05             	shr    ecx,0x5
   140002b71:	66 2b d1             	sub    dx,cx
   140002b74:	83 7c 24 10 00       	cmp    DWORD PTR [rsp+0x10],0x0
   140002b79:	66 42 89 94 55 80 01 	mov    WORD PTR [rbp+r10*2+0x180],dx
   140002b80:	00 00 
   140002b82:	75 09                	jne    0x140002b8d
   140002b84:	45 85 c0             	test   r8d,r8d
   140002b87:	0f 84 c3 08 00 00    	je     0x140003450
   140002b8d:	46 0f b7 84 55 98 01 	movzx  r8d,WORD PTR [rbp+r10*2+0x198]
   140002b94:	00 00 
   140002b96:	41 81 f9 00 00 00 01 	cmp    r9d,0x1000000
   140002b9d:	73 10                	jae    0x140002baf
   140002b9f:	41 0f b6 0b          	movzx  ecx,BYTE PTR [r11]
   140002ba3:	c1 e0 08             	shl    eax,0x8
   140002ba6:	0b c1                	or     eax,ecx
   140002ba8:	41 c1 e1 08          	shl    r9d,0x8
   140002bac:	49 ff c3             	inc    r11
   140002baf:	41 8b d1             	mov    edx,r9d
   140002bb2:	c1 ea 0b             	shr    edx,0xb
   140002bb5:	41 0f af d0          	imul   edx,r8d
   140002bb9:	3b c2                	cmp    eax,edx
   140002bbb:	0f 83 cd 00 00 00    	jae    0x140002c8e
   140002bc1:	b9 00 08 00 00       	mov    ecx,0x800
   140002bc6:	44 8b ca             	mov    r9d,edx
   140002bc9:	41 2b c8             	sub    ecx,r8d
   140002bcc:	c1 e9 05             	shr    ecx,0x5
   140002bcf:	66 41 03 c8          	add    cx,r8w
   140002bd3:	66 42 89 8c 55 98 01 	mov    WORD PTR [rbp+r10*2+0x198],cx
   140002bda:	00 00 
   140002bdc:	44 0f b7 84 5d e0 01 	movzx  r8d,WORD PTR [rbp+rbx*2+0x1e0]
   140002be3:	00 00 
   140002be5:	81 fa 00 00 00 01    	cmp    edx,0x1000000
   140002beb:	73 10                	jae    0x140002bfd
   140002bed:	41 0f b6 0b          	movzx  ecx,BYTE PTR [r11]
   140002bf1:	c1 e0 08             	shl    eax,0x8
   140002bf4:	0b c1                	or     eax,ecx
   140002bf6:	41 c1 e1 08          	shl    r9d,0x8
   140002bfa:	49 ff c3             	inc    r11
   140002bfd:	41 8b c9             	mov    ecx,r9d
   140002c00:	c1 e9 0b             	shr    ecx,0xb
   140002c03:	41 0f af c8          	imul   ecx,r8d
   140002c07:	3b c1                	cmp    eax,ecx
   140002c09:	73 66                	jae    0x140002c71
   140002c0b:	44 8b c9             	mov    r9d,ecx
   140002c0e:	33 d2                	xor    edx,edx
   140002c10:	b9 00 08 00 00       	mov    ecx,0x800
   140002c15:	41 2b c8             	sub    ecx,r8d
   140002c18:	c1 e9 05             	shr    ecx,0x5
   140002c1b:	66 41 03 c8          	add    cx,r8w
   140002c1f:	44 8b 84 24 a8 00 00 	mov    r8d,DWORD PTR [rsp+0xa8]
   140002c26:	00 
   140002c27:	66 89 8c 5d e0 01 00 	mov    WORD PTR [rbp+rbx*2+0x1e0],cx
   140002c2e:	00 
   140002c2f:	8b 0c 24             	mov    ecx,DWORD PTR [rsp]
   140002c32:	4c 3b e1             	cmp    r12,rcx
   140002c35:	48 0f 42 54 24 18    	cmovb  rdx,QWORD PTR [rsp+0x18]
   140002c3b:	41 ff c0             	inc    r8d
   140002c3e:	48 2b d1             	sub    rdx,rcx
   140002c41:	44 89 84 24 a8 00 00 	mov    DWORD PTR [rsp+0xa8],r8d
   140002c48:	00 
   140002c49:	49 03 d4             	add    rdx,r12
   140002c4c:	42 0f b6 0c 32       	movzx  ecx,BYTE PTR [rdx+r14*1]
   140002c51:	ba 09 00 00 00       	mov    edx,0x9
   140002c56:	43 88 0c 34          	mov    BYTE PTR [r12+r14*1],cl
   140002c5a:	49 ff c4             	inc    r12
   140002c5d:	41 83 fd 07          	cmp    r13d,0x7
   140002c61:	b9 0b 00 00 00       	mov    ecx,0xb
   140002c66:	0f 42 ca             	cmovb  ecx,edx
   140002c69:	44 8b e9             	mov    r13d,ecx
   140002c6c:	e9 c7 08 00 00       	jmp    0x140003538
   140002c71:	44 2b c9             	sub    r9d,ecx
   140002c74:	2b c1                	sub    eax,ecx
   140002c76:	41 8b c8             	mov    ecx,r8d
   140002c79:	c1 e9 05             	shr    ecx,0x5
   140002c7c:	66 44 2b c1          	sub    r8w,cx
   140002c80:	66 44 89 84 5d e0 01 	mov    WORD PTR [rbp+rbx*2+0x1e0],r8w
   140002c87:	00 00 
   140002c89:	e9 ff 00 00 00       	jmp    0x140002d8d
   140002c8e:	41 8b c8             	mov    ecx,r8d
   140002c91:	44 2b ca             	sub    r9d,edx
   140002c94:	c1 e9 05             	shr    ecx,0x5
   140002c97:	2b c2                	sub    eax,edx
   140002c99:	66 44 2b c1          	sub    r8w,cx
   140002c9d:	66 46 89 84 55 98 01 	mov    WORD PTR [rbp+r10*2+0x198],r8w
   140002ca4:	00 00 
   140002ca6:	42 0f b7 94 55 b0 01 	movzx  edx,WORD PTR [rbp+r10*2+0x1b0]
   140002cad:	00 00 
   140002caf:	41 81 f9 00 00 00 01 	cmp    r9d,0x1000000
   140002cb6:	73 10                	jae    0x140002cc8
   140002cb8:	41 0f b6 0b          	movzx  ecx,BYTE PTR [r11]
   140002cbc:	c1 e0 08             	shl    eax,0x8
   140002cbf:	0b c1                	or     eax,ecx
   140002cc1:	41 c1 e1 08          	shl    r9d,0x8
   140002cc5:	49 ff c3             	inc    r11
   140002cc8:	41 8b c9             	mov    ecx,r9d
   140002ccb:	c1 e9 0b             	shr    ecx,0xb
   140002cce:	0f af ca             	imul   ecx,edx
   140002cd1:	3b c1                	cmp    eax,ecx
   140002cd3:	73 23                	jae    0x140002cf8
   140002cd5:	44 8b 44 24 04       	mov    r8d,DWORD PTR [rsp+0x4]
   140002cda:	44 8b c9             	mov    r9d,ecx
   140002cdd:	b9 00 08 00 00       	mov    ecx,0x800
   140002ce2:	2b ca                	sub    ecx,edx
   140002ce4:	c1 e9 05             	shr    ecx,0x5
   140002ce7:	66 03 ca             	add    cx,dx
   140002cea:	66 42 89 8c 55 b0 01 	mov    WORD PTR [rbp+r10*2+0x1b0],cx
   140002cf1:	00 00 
   140002cf3:	e9 8a 00 00 00       	jmp    0x140002d82
   140002cf8:	44 2b c9             	sub    r9d,ecx
   140002cfb:	2b c1                	sub    eax,ecx
   140002cfd:	8b ca                	mov    ecx,edx
   140002cff:	c1 e9 05             	shr    ecx,0x5
   140002d02:	66 2b d1             	sub    dx,cx
   140002d05:	66 42 89 94 55 b0 01 	mov    WORD PTR [rbp+r10*2+0x1b0],dx
   140002d0c:	00 00 
   140002d0e:	42 0f b7 94 55 c8 01 	movzx  edx,WORD PTR [rbp+r10*2+0x1c8]
   140002d15:	00 00 
   140002d17:	41 81 f9 00 00 00 01 	cmp    r9d,0x1000000
   140002d1e:	73 10                	jae    0x140002d30
   140002d20:	41 0f b6 0b          	movzx  ecx,BYTE PTR [r11]
   140002d24:	c1 e0 08             	shl    eax,0x8
   140002d27:	0b c1                	or     eax,ecx
   140002d29:	41 c1 e1 08          	shl    r9d,0x8
   140002d2d:	49 ff c3             	inc    r11
   140002d30:	41 8b c9             	mov    ecx,r9d
   140002d33:	c1 e9 0b             	shr    ecx,0xb
   140002d36:	0f af ca             	imul   ecx,edx
   140002d39:	3b c1                	cmp    eax,ecx
   140002d3b:	73 17                	jae    0x140002d54
   140002d3d:	44 8b 44 24 08       	mov    r8d,DWORD PTR [rsp+0x8]
   140002d42:	44 8b c9             	mov    r9d,ecx
   140002d45:	b9 00 08 00 00       	mov    ecx,0x800
   140002d4a:	2b ca                	sub    ecx,edx
   140002d4c:	c1 e9 05             	shr    ecx,0x5
   140002d4f:	66 03 ca             	add    cx,dx
   140002d52:	eb 1d                	jmp    0x140002d71
   140002d54:	8b 5c 24 08          	mov    ebx,DWORD PTR [rsp+0x8]
   140002d58:	44 2b c9             	sub    r9d,ecx
   140002d5b:	2b c1                	sub    eax,ecx
   140002d5d:	89 5c 24 0c          	mov    DWORD PTR [rsp+0xc],ebx
   140002d61:	8b ca                	mov    ecx,edx
   140002d63:	44 8b c6             	mov    r8d,esi
   140002d66:	c1 e9 05             	shr    ecx,0x5
   140002d69:	8b f3                	mov    esi,ebx
   140002d6b:	66 2b d1             	sub    dx,cx
   140002d6e:	0f b7 ca             	movzx  ecx,dx
   140002d71:	8b 54 24 04          	mov    edx,DWORD PTR [rsp+0x4]
   140002d75:	89 54 24 08          	mov    DWORD PTR [rsp+0x8],edx
   140002d79:	66 42 89 8c 55 c8 01 	mov    WORD PTR [rbp+r10*2+0x1c8],cx
   140002d80:	00 00 
   140002d82:	8b 0c 24             	mov    ecx,DWORD PTR [rsp]
   140002d85:	89 4c 24 04          	mov    DWORD PTR [rsp+0x4],ecx
   140002d89:	44 89 04 24          	mov    DWORD PTR [rsp],r8d
   140002d8d:	41 83 fd 07          	cmp    r13d,0x7
   140002d91:	b9 0b 00 00 00       	mov    ecx,0xb
   140002d96:	41 ba 08 00 00 00    	mov    r10d,0x8
   140002d9c:	41 0f 42 ca          	cmovb  ecx,r10d
   140002da0:	44 8b e9             	mov    r13d,ecx
   140002da3:	b9 68 0a 00 00       	mov    ecx,0xa68
   140002da8:	0f b7 14 29          	movzx  edx,WORD PTR [rcx+rbp*1]
   140002dac:	4c 8d 04 29          	lea    r8,[rcx+rbp*1]
   140002db0:	41 81 f9 00 00 00 01 	cmp    r9d,0x1000000
   140002db7:	73 10                	jae    0x140002dc9
   140002db9:	41 0f b6 0b          	movzx  ecx,BYTE PTR [r11]
   140002dbd:	c1 e0 08             	shl    eax,0x8
   140002dc0:	0b c1                	or     eax,ecx
   140002dc2:	41 c1 e1 08          	shl    r9d,0x8
   140002dc6:	49 ff c3             	inc    r11
   140002dc9:	41 8b c9             	mov    ecx,r9d
   140002dcc:	c1 e9 0b             	shr    ecx,0xb
   140002dcf:	0f af ca             	imul   ecx,edx
   140002dd2:	3b c1                	cmp    eax,ecx
   140002dd4:	73 2a                	jae    0x140002e00
   140002dd6:	44 8b c9             	mov    r9d,ecx
   140002dd9:	8d 1c fd 00 00 00 00 	lea    ebx,[rdi*8+0x0]
   140002de0:	b9 00 08 00 00       	mov    ecx,0x800
   140002de5:	48 8d 5b 02          	lea    rbx,[rbx+0x2]
   140002de9:	2b ca                	sub    ecx,edx
   140002deb:	49 8d 1c 58          	lea    rbx,[r8+rbx*2]
   140002def:	c1 e9 05             	shr    ecx,0x5
   140002df2:	66 03 ca             	add    cx,dx
   140002df5:	66 41 89 08          	mov    WORD PTR [r8],cx
   140002df9:	33 ff                	xor    edi,edi
   140002dfb:	e9 8c 00 00 00       	jmp    0x140002e8c
   140002e00:	44 2b c9             	sub    r9d,ecx
   140002e03:	2b c1                	sub    eax,ecx
   140002e05:	8b ca                	mov    ecx,edx
   140002e07:	c1 e9 05             	shr    ecx,0x5
   140002e0a:	66 2b d1             	sub    dx,cx
   140002e0d:	66 41 89 10          	mov    WORD PTR [r8],dx
   140002e11:	41 0f b7 50 02       	movzx  edx,WORD PTR [r8+0x2]
   140002e16:	41 81 f9 00 00 00 01 	cmp    r9d,0x1000000
   140002e1d:	73 10                	jae    0x140002e2f
   140002e1f:	41 0f b6 0b          	movzx  ecx,BYTE PTR [r11]
   140002e23:	c1 e0 08             	shl    eax,0x8
   140002e26:	0b c1                	or     eax,ecx
   140002e28:	41 c1 e1 08          	shl    r9d,0x8
   140002e2c:	49 ff c3             	inc    r11
   140002e2f:	41 8b c9             	mov    ecx,r9d
   140002e32:	c1 e9 0b             	shr    ecx,0xb
   140002e35:	0f af ca             	imul   ecx,edx
   140002e38:	3b c1                	cmp    eax,ecx
   140002e3a:	73 2c                	jae    0x140002e68
   140002e3c:	44 8b c9             	mov    r9d,ecx
   140002e3f:	8d 1c fd 00 00 00 00 	lea    ebx,[rdi*8+0x0]
   140002e46:	b9 00 08 00 00       	mov    ecx,0x800
   140002e4b:	48 8d 9b 82 00 00 00 	lea    rbx,[rbx+0x82]
   140002e52:	2b ca                	sub    ecx,edx
   140002e54:	49 8d 1c 58          	lea    rbx,[r8+rbx*2]
   140002e58:	c1 e9 05             	shr    ecx,0x5
   140002e5b:	41 8b fa             	mov    edi,r10d
   140002e5e:	66 03 ca             	add    cx,dx
   140002e61:	66 41 89 48 02       	mov    WORD PTR [r8+0x2],cx
   140002e66:	eb 24                	jmp    0x140002e8c
   140002e68:	44 2b c9             	sub    r9d,ecx
   140002e6b:	49 8d 98 04 02 00 00 	lea    rbx,[r8+0x204]
   140002e72:	2b c1                	sub    eax,ecx
   140002e74:	bf 10 00 00 00       	mov    edi,0x10
   140002e79:	8b ca                	mov    ecx,edx
   140002e7b:	41 ba 00 01 00 00    	mov    r10d,0x100
   140002e81:	c1 e9 05             	shr    ecx,0x5
   140002e84:	66 2b d1             	sub    dx,cx
   140002e87:	66 41 89 50 02       	mov    WORD PTR [r8+0x2],dx
   140002e8c:	41 bf 01 00 00 00    	mov    r15d,0x1
   140002e92:	41 8b cf             	mov    ecx,r15d
   140002e95:	0f b7 14 4b          	movzx  edx,WORD PTR [rbx+rcx*2]
   140002e99:	4c 8d 04 4b          	lea    r8,[rbx+rcx*2]
   140002e9d:	41 81 f9 00 00 00 01 	cmp    r9d,0x1000000
   140002ea4:	73 10                	jae    0x140002eb6
   140002ea6:	41 0f b6 0b          	movzx  ecx,BYTE PTR [r11]
   140002eaa:	c1 e0 08             	shl    eax,0x8
   140002ead:	0b c1                	or     eax,ecx
   140002eaf:	41 c1 e1 08          	shl    r9d,0x8
   140002eb3:	49 ff c3             	inc    r11
   140002eb6:	41 8b c9             	mov    ecx,r9d
   140002eb9:	45 03 ff             	add    r15d,r15d
   140002ebc:	c1 e9 0b             	shr    ecx,0xb
   140002ebf:	0f af ca             	imul   ecx,edx
   140002ec2:	3b c1                	cmp    eax,ecx
   140002ec4:	73 12                	jae    0x140002ed8
   140002ec6:	44 8b c9             	mov    r9d,ecx
   140002ec9:	b9 00 08 00 00       	mov    ecx,0x800
   140002ece:	2b ca                	sub    ecx,edx
   140002ed0:	c1 e9 05             	shr    ecx,0x5
   140002ed3:	66 03 ca             	add    cx,dx
   140002ed6:	eb 13                	jmp    0x140002eeb
   140002ed8:	44 2b c9             	sub    r9d,ecx
   140002edb:	2b c1                	sub    eax,ecx
   140002edd:	8b ca                	mov    ecx,edx
   140002edf:	41 ff c7             	inc    r15d
   140002ee2:	c1 e9 05             	shr    ecx,0x5
   140002ee5:	66 2b d1             	sub    dx,cx
   140002ee8:	0f b7 ca             	movzx  ecx,dx
   140002eeb:	66 41 89 08          	mov    WORD PTR [r8],cx
   140002eef:	45 3b fa             	cmp    r15d,r10d
   140002ef2:	72 9e                	jb     0x140002e92
   140002ef4:	41 2b fa             	sub    edi,r10d
   140002ef7:	44 03 ff             	add    r15d,edi
   140002efa:	41 83 fd 0c          	cmp    r13d,0xc
   140002efe:	0f 82 84 05 00 00    	jb     0x140003488
   140002f04:	41 83 ff 04          	cmp    r15d,0x4
   140002f08:	bb 03 00 00 00       	mov    ebx,0x3
   140002f0d:	41 0f 42 df          	cmovb  ebx,r15d
   140002f11:	c1 e3 06             	shl    ebx,0x6
   140002f14:	48 81 c3 b0 01 00 00 	add    rbx,0x1b0
   140002f1b:	0f b7 54 5d 02       	movzx  edx,WORD PTR [rbp+rbx*2+0x2]
   140002f20:	41 81 f9 00 00 00 01 	cmp    r9d,0x1000000
   140002f27:	73 10                	jae    0x140002f39
   140002f29:	41 0f b6 0b          	movzx  ecx,BYTE PTR [r11]
   140002f2d:	c1 e0 08             	shl    eax,0x8
   140002f30:	0b c1                	or     eax,ecx
   140002f32:	41 c1 e1 08          	shl    r9d,0x8
   140002f36:	49 ff c3             	inc    r11
   140002f39:	41 8b c9             	mov    ecx,r9d
   140002f3c:	c1 e9 0b             	shr    ecx,0xb
   140002f3f:	0f af ca             	imul   ecx,edx
   140002f42:	3b c1                	cmp    eax,ecx
   140002f44:	73 1b                	jae    0x140002f61
   140002f46:	44 8b c9             	mov    r9d,ecx
   140002f49:	b9 00 08 00 00       	mov    ecx,0x800
   140002f4e:	2b ca                	sub    ecx,edx
   140002f50:	c1 e9 05             	shr    ecx,0x5
   140002f53:	66 03 ca             	add    cx,dx
   140002f56:	ba 02 00 00 00       	mov    edx,0x2
   140002f5b:	44 8d 42 02          	lea    r8d,[rdx+0x2]
   140002f5f:	eb 19                	jmp    0x140002f7a
   140002f61:	44 2b c9             	sub    r9d,ecx
   140002f64:	2b c1                	sub    eax,ecx
   140002f66:	8b ca                	mov    ecx,edx
   140002f68:	c1 e9 05             	shr    ecx,0x5
   140002f6b:	66 2b d1             	sub    dx,cx
   140002f6e:	0f b7 ca             	movzx  ecx,dx
   140002f71:	ba 03 00 00 00       	mov    edx,0x3
   140002f76:	44 8d 42 03          	lea    r8d,[rdx+0x3]
   140002f7a:	66 89 4c 5d 02       	mov    WORD PTR [rbp+rbx*2+0x2],cx
   140002f7f:	48 8d 0c 13          	lea    rcx,[rbx+rdx*1]
   140002f83:	4c 8d 14 4d 00 00 00 	lea    r10,[rcx*2+0x0]
   140002f8a:	00 
   140002f8b:	41 0f b7 14 2a       	movzx  edx,WORD PTR [r10+rbp*1]
   140002f90:	41 81 f9 00 00 00 01 	cmp    r9d,0x1000000
   140002f97:	73 10                	jae    0x140002fa9
   140002f99:	41 0f b6 0b          	movzx  ecx,BYTE PTR [r11]
   140002f9d:	c1 e0 08             	shl    eax,0x8
   140002fa0:	0b c1                	or     eax,ecx
   140002fa2:	41 c1 e1 08          	shl    r9d,0x8
   140002fa6:	49 ff c3             	inc    r11
   140002fa9:	41 8b c9             	mov    ecx,r9d
   140002fac:	c1 e9 0b             	shr    ecx,0xb
   140002faf:	0f af ca             	imul   ecx,edx
   140002fb2:	3b c1                	cmp    eax,ecx
   140002fb4:	73 12                	jae    0x140002fc8
   140002fb6:	44 8b c9             	mov    r9d,ecx
   140002fb9:	b9 00 08 00 00       	mov    ecx,0x800
   140002fbe:	2b ca                	sub    ecx,edx
   140002fc0:	c1 e9 05             	shr    ecx,0x5
   140002fc3:	66 03 ca             	add    cx,dx
   140002fc6:	eb 13                	jmp    0x140002fdb
   140002fc8:	44 2b c9             	sub    r9d,ecx
   140002fcb:	2b c1                	sub    eax,ecx
   140002fcd:	8b ca                	mov    ecx,edx
   140002fcf:	41 ff c0             	inc    r8d
   140002fd2:	c1 e9 05             	shr    ecx,0x5
   140002fd5:	66 2b d1             	sub    dx,cx
   140002fd8:	0f b7 ca             	movzx  ecx,dx
   140002fdb:	66 41 89 0c 2a       	mov    WORD PTR [r10+rbp*1],cx
   140002fe0:	41 8b c8             	mov    ecx,r8d
   140002fe3:	48 03 cb             	add    rcx,rbx
   140002fe6:	4c 8d 14 4d 00 00 00 	lea    r10,[rcx*2+0x0]
   140002fed:	00 
   140002fee:	41 0f b7 14 2a       	movzx  edx,WORD PTR [r10+rbp*1]
   140002ff3:	41 81 f9 00 00 00 01 	cmp    r9d,0x1000000
   140002ffa:	73 10                	jae    0x14000300c
   140002ffc:	41 0f b6 0b          	movzx  ecx,BYTE PTR [r11]
   140003000:	c1 e0 08             	shl    eax,0x8
   140003003:	0b c1                	or     eax,ecx
   140003005:	41 c1 e1 08          	shl    r9d,0x8
   140003009:	49 ff c3             	inc    r11
   14000300c:	41 8b c9             	mov    ecx,r9d
   14000300f:	45 03 c0             	add    r8d,r8d
   140003012:	c1 e9 0b             	shr    ecx,0xb
   140003015:	0f af ca             	imul   ecx,edx
   140003018:	3b c1                	cmp    eax,ecx
   14000301a:	73 12                	jae    0x14000302e
   14000301c:	44 8b c9             	mov    r9d,ecx
   14000301f:	b9 00 08 00 00       	mov    ecx,0x800
   140003024:	2b ca                	sub    ecx,edx
   140003026:	c1 e9 05             	shr    ecx,0x5
   140003029:	66 03 ca             	add    cx,dx
   14000302c:	eb 13                	jmp    0x140003041
   14000302e:	44 2b c9             	sub    r9d,ecx
   140003031:	2b c1                	sub    eax,ecx
   140003033:	8b ca                	mov    ecx,edx
   140003035:	41 ff c0             	inc    r8d
   140003038:	c1 e9 05             	shr    ecx,0x5
   14000303b:	66 2b d1             	sub    dx,cx
   14000303e:	0f b7 ca             	movzx  ecx,dx
   140003041:	66 41 89 0c 2a       	mov    WORD PTR [r10+rbp*1],cx
   140003046:	41 8b c8             	mov    ecx,r8d
   140003049:	48 03 cb             	add    rcx,rbx
   14000304c:	4c 8d 14 4d 00 00 00 	lea    r10,[rcx*2+0x0]
   140003053:	00 
   140003054:	41 0f b7 14 2a       	movzx  edx,WORD PTR [r10+rbp*1]
   140003059:	41 81 f9 00 00 00 01 	cmp    r9d,0x1000000
   140003060:	73 10                	jae    0x140003072
   140003062:	41 0f b6 0b          	movzx  ecx,BYTE PTR [r11]
   140003066:	c1 e0 08             	shl    eax,0x8
   140003069:	0b c1                	or     eax,ecx
   14000306b:	41 c1 e1 08          	shl    r9d,0x8
   14000306f:	49 ff c3             	inc    r11
   140003072:	41 8b c9             	mov    ecx,r9d
   140003075:	45 03 c0             	add    r8d,r8d
   140003078:	c1 e9 0b             	shr    ecx,0xb
   14000307b:	0f af ca             	imul   ecx,edx
   14000307e:	3b c1                	cmp    eax,ecx
   140003080:	73 12                	jae    0x140003094
   140003082:	44 8b c9             	mov    r9d,ecx
   140003085:	b9 00 08 00 00       	mov    ecx,0x800
   14000308a:	2b ca                	sub    ecx,edx
   14000308c:	c1 e9 05             	shr    ecx,0x5
   14000308f:	66 03 ca             	add    cx,dx
   140003092:	eb 13                	jmp    0x1400030a7
   140003094:	44 2b c9             	sub    r9d,ecx
   140003097:	2b c1                	sub    eax,ecx
   140003099:	8b ca                	mov    ecx,edx
   14000309b:	41 ff c0             	inc    r8d
   14000309e:	c1 e9 05             	shr    ecx,0x5
   1400030a1:	66 2b d1             	sub    dx,cx
   1400030a4:	0f b7 ca             	movzx  ecx,dx
   1400030a7:	66 41 89 0c 2a       	mov    WORD PTR [r10+rbp*1],cx
   1400030ac:	41 8b c8             	mov    ecx,r8d
   1400030af:	48 03 cb             	add    rcx,rbx
   1400030b2:	4c 8d 14 4d 00 00 00 	lea    r10,[rcx*2+0x0]
   1400030b9:	00 
   1400030ba:	41 0f b7 14 2a       	movzx  edx,WORD PTR [r10+rbp*1]
   1400030bf:	41 81 f9 00 00 00 01 	cmp    r9d,0x1000000
   1400030c6:	73 10                	jae    0x1400030d8
   1400030c8:	41 0f b6 0b          	movzx  ecx,BYTE PTR [r11]
   1400030cc:	c1 e0 08             	shl    eax,0x8
   1400030cf:	0b c1                	or     eax,ecx
   1400030d1:	41 c1 e1 08          	shl    r9d,0x8
   1400030d5:	49 ff c3             	inc    r11
   1400030d8:	41 8b c9             	mov    ecx,r9d
   1400030db:	45 03 c0             	add    r8d,r8d
   1400030de:	c1 e9 0b             	shr    ecx,0xb
   1400030e1:	0f af ca             	imul   ecx,edx
   1400030e4:	3b c1                	cmp    eax,ecx
   1400030e6:	73 12                	jae    0x1400030fa
   1400030e8:	44 8b c9             	mov    r9d,ecx
   1400030eb:	b9 00 08 00 00       	mov    ecx,0x800
   1400030f0:	2b ca                	sub    ecx,edx
   1400030f2:	c1 e9 05             	shr    ecx,0x5
   1400030f5:	66 03 ca             	add    cx,dx
   1400030f8:	eb 13                	jmp    0x14000310d
   1400030fa:	44 2b c9             	sub    r9d,ecx
   1400030fd:	2b c1                	sub    eax,ecx
   1400030ff:	8b ca                	mov    ecx,edx
   140003101:	41 ff c0             	inc    r8d
   140003104:	c1 e9 05             	shr    ecx,0x5
   140003107:	66 2b d1             	sub    dx,cx
   14000310a:	0f b7 ca             	movzx  ecx,dx
   14000310d:	66 41 89 0c 2a       	mov    WORD PTR [r10+rbp*1],cx
   140003112:	41 8b c8             	mov    ecx,r8d
   140003115:	48 03 cb             	add    rcx,rbx
   140003118:	4c 8d 14 4d 00 00 00 	lea    r10,[rcx*2+0x0]
   14000311f:	00 
   140003120:	41 0f b7 14 2a       	movzx  edx,WORD PTR [r10+rbp*1]
   140003125:	41 81 f9 00 00 00 01 	cmp    r9d,0x1000000
   14000312c:	73 10                	jae    0x14000313e
   14000312e:	41 0f b6 0b          	movzx  ecx,BYTE PTR [r11]
   140003132:	c1 e0 08             	shl    eax,0x8
   140003135:	0b c1                	or     eax,ecx
   140003137:	41 c1 e1 08          	shl    r9d,0x8
   14000313b:	49 ff c3             	inc    r11
   14000313e:	41 8b c9             	mov    ecx,r9d
   140003141:	45 03 c0             	add    r8d,r8d
   140003144:	c1 e9 0b             	shr    ecx,0xb
   140003147:	0f af ca             	imul   ecx,edx
   14000314a:	3b c1                	cmp    eax,ecx
   14000314c:	73 12                	jae    0x140003160
   14000314e:	44 8b c9             	mov    r9d,ecx
   140003151:	b9 00 08 00 00       	mov    ecx,0x800
   140003156:	2b ca                	sub    ecx,edx
   140003158:	c1 e9 05             	shr    ecx,0x5
   14000315b:	66 03 ca             	add    cx,dx
   14000315e:	eb 13                	jmp    0x140003173
   140003160:	44 2b c9             	sub    r9d,ecx
   140003163:	2b c1                	sub    eax,ecx
   140003165:	8b ca                	mov    ecx,edx
   140003167:	41 ff c0             	inc    r8d
   14000316a:	c1 e9 05             	shr    ecx,0x5
   14000316d:	66 2b d1             	sub    dx,cx
   140003170:	0f b7 ca             	movzx  ecx,dx
   140003173:	41 83 c0 c0          	add    r8d,0xffffffc0
   140003177:	66 41 89 0c 2a       	mov    WORD PTR [r10+rbp*1],cx
   14000317c:	41 83 f8 04          	cmp    r8d,0x4
   140003180:	0f 82 95 02 00 00    	jb     0x14000341b
   140003186:	45 8b d0             	mov    r10d,r8d
   140003189:	41 8b d0             	mov    edx,r8d
   14000318c:	41 d1 ea             	shr    r10d,1
   14000318f:	41 83 e0 01          	and    r8d,0x1
   140003193:	41 ff ca             	dec    r10d
   140003196:	41 83 c8 02          	or     r8d,0x2
   14000319a:	83 fa 0e             	cmp    edx,0xe
   14000319d:	0f 83 8f 00 00 00    	jae    0x140003232
   1400031a3:	41 8b ca             	mov    ecx,r10d
   1400031a6:	4c 8d b5 5e 05 00 00 	lea    r14,[rbp+0x55e]
   1400031ad:	41 d3 e0             	shl    r8d,cl
   1400031b0:	bf 01 00 00 00       	mov    edi,0x1
   1400031b5:	8b ca                	mov    ecx,edx
   1400031b7:	8b df                	mov    ebx,edi
   1400031b9:	41 8b d0             	mov    edx,r8d
   1400031bc:	48 2b d1             	sub    rdx,rcx
   1400031bf:	4d 8d 34 56          	lea    r14,[r14+rdx*2]
   1400031c3:	8b cb                	mov    ecx,ebx
   1400031c5:	41 0f b7 14 4e       	movzx  edx,WORD PTR [r14+rcx*2]
   1400031ca:	49 8d 34 4e          	lea    rsi,[r14+rcx*2]
   1400031ce:	41 81 f9 00 00 00 01 	cmp    r9d,0x1000000
   1400031d5:	73 10                	jae    0x1400031e7
   1400031d7:	41 0f b6 0b          	movzx  ecx,BYTE PTR [r11]
   1400031db:	c1 e0 08             	shl    eax,0x8
   1400031de:	0b c1                	or     eax,ecx
   1400031e0:	41 c1 e1 08          	shl    r9d,0x8
   1400031e4:	49 ff c3             	inc    r11
   1400031e7:	41 8b c9             	mov    ecx,r9d
   1400031ea:	03 db                	add    ebx,ebx
   1400031ec:	c1 e9 0b             	shr    ecx,0xb
   1400031ef:	0f af ca             	imul   ecx,edx
   1400031f2:	3b c1                	cmp    eax,ecx
   1400031f4:	73 12                	jae    0x140003208
   1400031f6:	44 8b c9             	mov    r9d,ecx
   1400031f9:	b9 00 08 00 00       	mov    ecx,0x800
   1400031fe:	2b ca                	sub    ecx,edx
   140003200:	c1 e9 05             	shr    ecx,0x5
   140003203:	66 03 ca             	add    cx,dx
   140003206:	eb 15                	jmp    0x14000321d
   140003208:	44 2b c9             	sub    r9d,ecx
   14000320b:	2b c1                	sub    eax,ecx
   14000320d:	8b ca                	mov    ecx,edx
   14000320f:	ff c3                	inc    ebx
   140003211:	c1 e9 05             	shr    ecx,0x5
   140003214:	44 0b c7             	or     r8d,edi
   140003217:	66 2b d1             	sub    dx,cx
   14000321a:	0f b7 ca             	movzx  ecx,dx
   14000321d:	03 ff                	add    edi,edi
   14000321f:	66 89 0e             	mov    WORD PTR [rsi],cx
   140003222:	41 83 ea 01          	sub    r10d,0x1
   140003226:	75 9b                	jne    0x1400031c3
   140003228:	4c 8b 74 24 30       	mov    r14,QWORD PTR [rsp+0x30]
   14000322d:	e9 e9 01 00 00       	jmp    0x14000341b
   140003232:	41 83 ea 04          	sub    r10d,0x4
   140003236:	41 81 f9 00 00 00 01 	cmp    r9d,0x1000000
   14000323d:	73 10                	jae    0x14000324f
   14000323f:	41 0f b6 0b          	movzx  ecx,BYTE PTR [r11]
   140003243:	c1 e0 08             	shl    eax,0x8
   140003246:	0b c1                	or     eax,ecx
   140003248:	41 c1 e1 08          	shl    r9d,0x8
   14000324c:	49 ff c3             	inc    r11
   14000324f:	41 d1 e9             	shr    r9d,1
   140003252:	46 8d 04 45 01 00 00 	lea    r8d,[r8*2+0x1]
   140003259:	00 
   14000325a:	41 2b c1             	sub    eax,r9d
   14000325d:	8b c8                	mov    ecx,eax
   14000325f:	c1 e9 1f             	shr    ecx,0x1f
   140003262:	f7 d9                	neg    ecx
   140003264:	44 03 c1             	add    r8d,ecx
   140003267:	41 23 c9             	and    ecx,r9d
   14000326a:	03 c1                	add    eax,ecx
   14000326c:	41 83 ea 01          	sub    r10d,0x1
   140003270:	75 c4                	jne    0x140003236
   140003272:	0f b7 95 46 06 00 00 	movzx  edx,WORD PTR [rbp+0x646]
   140003279:	41 c1 e0 04          	shl    r8d,0x4
   14000327d:	41 81 f9 00 00 00 01 	cmp    r9d,0x1000000
   140003284:	73 10                	jae    0x140003296
   140003286:	41 0f b6 0b          	movzx  ecx,BYTE PTR [r11]
   14000328a:	c1 e0 08             	shl    eax,0x8
   14000328d:	0b c1                	or     eax,ecx
   14000328f:	41 c1 e1 08          	shl    r9d,0x8
   140003293:	49 ff c3             	inc    r11
   140003296:	41 8b c9             	mov    ecx,r9d
   140003299:	c1 e9 0b             	shr    ecx,0xb
   14000329c:	0f af ca             	imul   ecx,edx
   14000329f:	3b c1                	cmp    eax,ecx
   1400032a1:	73 17                	jae    0x1400032ba
   1400032a3:	44 8b c9             	mov    r9d,ecx
   1400032a6:	b9 00 08 00 00       	mov    ecx,0x800
   1400032ab:	2b ca                	sub    ecx,edx
   1400032ad:	c1 e9 05             	shr    ecx,0x5
   1400032b0:	66 03 ca             	add    cx,dx
   1400032b3:	ba 04 00 00 00       	mov    edx,0x4
   1400032b8:	eb 19                	jmp    0x1400032d3
   1400032ba:	44 2b c9             	sub    r9d,ecx
   1400032bd:	2b c1                	sub    eax,ecx
   1400032bf:	8b ca                	mov    ecx,edx
   1400032c1:	41 83 c8 01          	or     r8d,0x1
   1400032c5:	c1 e9 05             	shr    ecx,0x5
   1400032c8:	66 2b d1             	sub    dx,cx
   1400032cb:	0f b7 ca             	movzx  ecx,dx
   1400032ce:	ba 06 00 00 00       	mov    edx,0x6
   1400032d3:	66 89 8d 46 06 00 00 	mov    WORD PTR [rbp+0x646],cx
   1400032da:	48 8d 1c 2a          	lea    rbx,[rdx+rbp*1]
   1400032de:	44 8b d2             	mov    r10d,edx
   1400032e1:	0f b7 93 44 06 00 00 	movzx  edx,WORD PTR [rbx+0x644]
   1400032e8:	41 81 f9 00 00 00 01 	cmp    r9d,0x1000000
   1400032ef:	73 10                	jae    0x140003301
   1400032f1:	41 0f b6 0b          	movzx  ecx,BYTE PTR [r11]
   1400032f5:	c1 e0 08             	shl    eax,0x8
   1400032f8:	0b c1                	or     eax,ecx
   1400032fa:	41 c1 e1 08          	shl    r9d,0x8
   1400032fe:	49 ff c3             	inc    r11
   140003301:	41 8b c9             	mov    ecx,r9d
   140003304:	c1 e9 0b             	shr    ecx,0xb
   140003307:	0f af ca             	imul   ecx,edx
   14000330a:	3b c1                	cmp    eax,ecx
   14000330c:	73 12                	jae    0x140003320
   14000330e:	44 8b c9             	mov    r9d,ecx
   140003311:	b9 00 08 00 00       	mov    ecx,0x800
   140003316:	2b ca                	sub    ecx,edx
   140003318:	c1 e9 05             	shr    ecx,0x5
   14000331b:	66 03 ca             	add    cx,dx
   14000331e:	eb 17                	jmp    0x140003337
   140003320:	44 2b c9             	sub    r9d,ecx
   140003323:	2b c1                	sub    eax,ecx
   140003325:	8b ca                	mov    ecx,edx
   140003327:	41 ff c2             	inc    r10d
   14000332a:	c1 e9 05             	shr    ecx,0x5
   14000332d:	41 83 c8 02          	or     r8d,0x2
   140003331:	66 2b d1             	sub    dx,cx
   140003334:	0f b7 ca             	movzx  ecx,dx
   140003337:	66 89 8b 44 06 00 00 	mov    WORD PTR [rbx+0x644],cx
   14000333e:	41 8b ca             	mov    ecx,r10d
   140003341:	48 8d 1c 4d 00 00 00 	lea    rbx,[rcx*2+0x0]
   140003348:	00 
   140003349:	0f b7 94 2b 44 06 00 	movzx  edx,WORD PTR [rbx+rbp*1+0x644]
   140003350:	00 
   140003351:	41 81 f9 00 00 00 01 	cmp    r9d,0x1000000
   140003358:	73 10                	jae    0x14000336a
   14000335a:	41 0f b6 0b          	movzx  ecx,BYTE PTR [r11]
   14000335e:	c1 e0 08             	shl    eax,0x8
   140003361:	0b c1                	or     eax,ecx
   140003363:	41 c1 e1 08          	shl    r9d,0x8
   140003367:	49 ff c3             	inc    r11
   14000336a:	41 8b c9             	mov    ecx,r9d
   14000336d:	45 03 d2             	add    r10d,r10d
   140003370:	c1 e9 0b             	shr    ecx,0xb
   140003373:	0f af ca             	imul   ecx,edx
   140003376:	3b c1                	cmp    eax,ecx
   140003378:	73 12                	jae    0x14000338c
   14000337a:	44 8b c9             	mov    r9d,ecx
   14000337d:	b9 00 08 00 00       	mov    ecx,0x800
   140003382:	2b ca                	sub    ecx,edx
   140003384:	c1 e9 05             	shr    ecx,0x5
   140003387:	66 03 ca             	add    cx,dx
   14000338a:	eb 17                	jmp    0x1400033a3
   14000338c:	44 2b c9             	sub    r9d,ecx
   14000338f:	2b c1                	sub    eax,ecx
   140003391:	8b ca                	mov    ecx,edx
   140003393:	41 ff c2             	inc    r10d
   140003396:	c1 e9 05             	shr    ecx,0x5
   140003399:	41 83 c8 04          	or     r8d,0x4
   14000339d:	66 2b d1             	sub    dx,cx
   1400033a0:	0f b7 ca             	movzx  ecx,dx
   1400033a3:	66 89 8c 2b 44 06 00 	mov    WORD PTR [rbx+rbp*1+0x644],cx
   1400033aa:	00 
   1400033ab:	4e 8d 14 55 00 00 00 	lea    r10,[r10*2+0x0]
   1400033b2:	00 
   1400033b3:	41 0f b7 94 2a 44 06 	movzx  edx,WORD PTR [r10+rbp*1+0x644]
   1400033ba:	00 00 
   1400033bc:	41 81 f9 00 00 00 01 	cmp    r9d,0x1000000
   1400033c3:	73 10                	jae    0x1400033d5
   1400033c5:	41 0f b6 0b          	movzx  ecx,BYTE PTR [r11]
   1400033c9:	c1 e0 08             	shl    eax,0x8
   1400033cc:	0b c1                	or     eax,ecx
   1400033ce:	41 c1 e1 08          	shl    r9d,0x8
   1400033d2:	49 ff c3             	inc    r11
   1400033d5:	41 8b c9             	mov    ecx,r9d
   1400033d8:	c1 e9 0b             	shr    ecx,0xb
   1400033db:	0f af ca             	imul   ecx,edx
   1400033de:	3b c1                	cmp    eax,ecx
   1400033e0:	73 12                	jae    0x1400033f4
   1400033e2:	44 8b c9             	mov    r9d,ecx
   1400033e5:	b9 00 08 00 00       	mov    ecx,0x800
   1400033ea:	2b ca                	sub    ecx,edx
   1400033ec:	c1 e9 05             	shr    ecx,0x5
   1400033ef:	66 03 ca             	add    cx,dx
   1400033f2:	eb 14                	jmp    0x140003408
   1400033f4:	44 2b c9             	sub    r9d,ecx
   1400033f7:	2b c1                	sub    eax,ecx
   1400033f9:	8b ca                	mov    ecx,edx
   1400033fb:	41 83 c8 08          	or     r8d,0x8
   1400033ff:	c1 e9 05             	shr    ecx,0x5
   140003402:	66 2b d1             	sub    dx,cx
   140003405:	0f b7 ca             	movzx  ecx,dx
   140003408:	66 41 89 8c 2a 44 06 	mov    WORD PTR [r10+rbp*1+0x644],cx
   14000340f:	00 00 
   140003411:	41 83 f8 ff          	cmp    r8d,0xffffffff
   140003415:	0f 84 42 01 00 00    	je     0x14000355d
   14000341b:	8b 0c 24             	mov    ecx,DWORD PTR [rsp]
   14000341e:	45 8d 50 01          	lea    r10d,[r8+0x1]
   140003422:	8b 5c 24 08          	mov    ebx,DWORD PTR [rsp+0x8]
   140003426:	8b f3                	mov    esi,ebx
   140003428:	8b 54 24 04          	mov    edx,DWORD PTR [rsp+0x4]
   14000342c:	89 4c 24 04          	mov    DWORD PTR [rsp+0x4],ecx
   140003430:	8b 4c 24 10          	mov    ecx,DWORD PTR [rsp+0x10]
   140003434:	89 5c 24 0c          	mov    DWORD PTR [rsp+0xc],ebx
   140003438:	89 54 24 08          	mov    DWORD PTR [rsp+0x8],edx
   14000343c:	44 89 14 24          	mov    DWORD PTR [rsp],r10d
   140003440:	85 c9                	test   ecx,ecx
   140003442:	75 22                	jne    0x140003466
   140003444:	8b 9c 24 a8 00 00 00 	mov    ebx,DWORD PTR [rsp+0xa8]
   14000344b:	44 3b c3             	cmp    r8d,ebx
   14000344e:	72 22                	jb     0x140003472
   140003450:	b8 01 00 00 00       	mov    eax,0x1
   140003455:	48 83 c4 48          	add    rsp,0x48
   140003459:	41 5f                	pop    r15
   14000345b:	41 5e                	pop    r14
   14000345d:	41 5d                	pop    r13
   14000345f:	41 5c                	pop    r12
   140003461:	5f                   	pop    rdi
   140003462:	5e                   	pop    rsi
   140003463:	5d                   	pop    rbp
   140003464:	5b                   	pop    rbx
   140003465:	c3                   	ret
   140003466:	44 3b c1             	cmp    r8d,ecx
   140003469:	73 e5                	jae    0x140003450
   14000346b:	8b 9c 24 a8 00 00 00 	mov    ebx,DWORD PTR [rsp+0xa8]
   140003472:	41 83 fd 13          	cmp    r13d,0x13
   140003476:	b9 0a 00 00 00       	mov    ecx,0xa
   14000347b:	ba 07 00 00 00       	mov    edx,0x7
   140003480:	0f 42 ca             	cmovb  ecx,edx
   140003483:	44 8b e9             	mov    r13d,ecx
   140003486:	eb 0b                	jmp    0x140003493
   140003488:	8b 9c 24 a8 00 00 00 	mov    ebx,DWORD PTR [rsp+0xa8]
   14000348f:	44 8b 14 24          	mov    r10d,DWORD PTR [rsp]
   140003493:	48 8b 8c 24 98 00 00 	mov    rcx,QWORD PTR [rsp+0x98]
   14000349a:	00 
   14000349b:	41 83 c7 02          	add    r15d,0x2
   14000349f:	49 3b cc             	cmp    rcx,r12
   1400034a2:	74 ac                	je     0x140003450
   1400034a4:	48 8b 7c 24 18       	mov    rdi,QWORD PTR [rsp+0x18]
   1400034a9:	48 8b d1             	mov    rdx,rcx
   1400034ac:	49 2b d4             	sub    rdx,r12
   1400034af:	41 8b cf             	mov    ecx,r15d
   1400034b2:	48 3b d1             	cmp    rdx,rcx
   1400034b5:	45 8b c7             	mov    r8d,r15d
   1400034b8:	41 8b ca             	mov    ecx,r10d
   1400034bb:	44 0f 42 c2          	cmovb  r8d,edx
   1400034bf:	45 33 d2             	xor    r10d,r10d
   1400034c2:	4c 3b e1             	cmp    r12,rcx
   1400034c5:	4c 0f 42 d7          	cmovb  r10,rdi
   1400034c9:	41 03 d8             	add    ebx,r8d
   1400034cc:	4c 2b d1             	sub    r10,rcx
   1400034cf:	89 9c 24 a8 00 00 00 	mov    DWORD PTR [rsp+0xa8],ebx
   1400034d6:	45 2b f8             	sub    r15d,r8d
   1400034d9:	41 8b d8             	mov    ebx,r8d
   1400034dc:	4b 8d 14 22          	lea    rdx,[r10+r12*1]
   1400034e0:	49 8d 0c 10          	lea    rcx,[r8+rdx*1]
   1400034e4:	48 3b cf             	cmp    rcx,rdi
   1400034e7:	77 28                	ja     0x140003511
   1400034e9:	4b 8d 14 34          	lea    rdx,[r12+r14*1]
   1400034ed:	4c 03 c2             	add    r8,rdx
   1400034f0:	4c 03 e3             	add    r12,rbx
   1400034f3:	0f 1f 40 00          	nop    DWORD PTR [rax+0x0]
   1400034f7:	66 0f 1f 84 00 00 00 	nop    WORD PTR [rax+rax*1+0x0]
   1400034fe:	00 00 
   140003500:	41 0f b6 0c 12       	movzx  ecx,BYTE PTR [r10+rdx*1]
   140003505:	88 0a                	mov    BYTE PTR [rdx],cl
   140003507:	48 ff c2             	inc    rdx
   14000350a:	49 3b d0             	cmp    rdx,r8
   14000350d:	75 f1                	jne    0x140003500
   14000350f:	eb 1f                	jmp    0x140003530
   140003511:	42 0f b6 0c 32       	movzx  ecx,BYTE PTR [rdx+r14*1]
   140003516:	43 88 0c 34          	mov    BYTE PTR [r12+r14*1],cl
   14000351a:	48 8d 4a 01          	lea    rcx,[rdx+0x1]
   14000351e:	33 d2                	xor    edx,edx
   140003520:	49 ff c4             	inc    r12
   140003523:	48 3b cf             	cmp    rcx,rdi
   140003526:	48 0f 45 d1          	cmovne rdx,rcx
   14000352a:	41 83 c0 ff          	add    r8d,0xffffffff
   14000352e:	75 e1                	jne    0x140003511
   140003530:	44 8b 84 24 a8 00 00 	mov    r8d,DWORD PTR [rsp+0xa8]
   140003537:	00 
   140003538:	4c 3b a4 24 98 00 00 	cmp    r12,QWORD PTR [rsp+0x98]
   14000353f:	00 
   140003540:	73 26                	jae    0x140003568
   140003542:	4c 3b 9c 24 a0 00 00 	cmp    r11,QWORD PTR [rsp+0xa0]
   140003549:	00 
   14000354a:	73 1c                	jae    0x140003568
   14000354c:	4c 8b 94 24 90 00 00 	mov    r10,QWORD PTR [rsp+0x90]
   140003553:	00 
   140003554:	8b 54 24 2c          	mov    edx,DWORD PTR [rsp+0x2c]
   140003558:	e9 94 f3 ff ff       	jmp    0x1400028f1
   14000355d:	41 81 c7 12 01 00 00 	add    r15d,0x112
   140003564:	41 83 c5 f4          	add    r13d,0xfffffff4
   140003568:	41 81 f9 00 00 00 01 	cmp    r9d,0x1000000
   14000356f:	73 10                	jae    0x140003581
   140003571:	41 0f b6 0b          	movzx  ecx,BYTE PTR [r11]
   140003575:	c1 e0 08             	shl    eax,0x8
   140003578:	0b c1                	or     eax,ecx
   14000357a:	41 c1 e1 08          	shl    r9d,0x8
   14000357e:	49 ff c3             	inc    r11
   140003581:	48 8b 8c 24 90 00 00 	mov    rcx,QWORD PTR [rsp+0x90]
   140003588:	00 
   140003589:	8b 9c 24 a8 00 00 00 	mov    ebx,DWORD PTR [rsp+0xa8]
   140003590:	8b 54 24 04          	mov    edx,DWORD PTR [rsp+0x4]
   140003594:	89 41 2c             	mov    DWORD PTR [rcx+0x2c],eax
   140003597:	8b 04 24             	mov    eax,DWORD PTR [rsp]
   14000359a:	89 59 40             	mov    DWORD PTR [rcx+0x40],ebx
   14000359d:	8b 5c 24 08          	mov    ebx,DWORD PTR [rsp+0x8]
   1400035a1:	89 41 4c             	mov    DWORD PTR [rcx+0x4c],eax
   1400035a4:	33 c0                	xor    eax,eax
   1400035a6:	4c 89 59 20          	mov    QWORD PTR [rcx+0x20],r11
   1400035aa:	44 89 49 28          	mov    DWORD PTR [rcx+0x28],r9d
   1400035ae:	44 89 79 5c          	mov    DWORD PTR [rcx+0x5c],r15d
   1400035b2:	4c 89 61 30          	mov    QWORD PTR [rcx+0x30],r12
   1400035b6:	89 51 50             	mov    DWORD PTR [rcx+0x50],edx
   1400035b9:	89 59 54             	mov    DWORD PTR [rcx+0x54],ebx
   1400035bc:	89 71 58             	mov    DWORD PTR [rcx+0x58],esi
   1400035bf:	44 89 69 48          	mov    DWORD PTR [rcx+0x48],r13d
   1400035c3:	e9 8d fe ff ff       	jmp    0x140003455
   1400035c8:	cc                   	int3
   1400035c9:	cc                   	int3
   1400035ca:	cc                   	int3
   1400035cb:	cc                   	int3
   1400035cc:	cc                   	int3
   1400035cd:	cc                   	int3
   1400035ce:	cc                   	int3
   1400035cf:	cc                   	int3
   1400035d0:	48 89 5c 24 08       	mov    QWORD PTR [rsp+0x8],rbx
   1400035d5:	48 89 74 24 10       	mov    QWORD PTR [rsp+0x10],rsi
   1400035da:	57                   	push   rdi
   1400035db:	48 83 ec 20          	sub    rsp,0x20
   1400035df:	49 8b f0             	mov    rsi,r8
   1400035e2:	48 8b fa             	mov    rdi,rdx
   1400035e5:	48 8b d9             	mov    rbx,rcx
   1400035e8:	0f 1f 84 00 00 00 00 	nop    DWORD PTR [rax+rax*1+0x0]
   1400035ef:	00 
   1400035f0:	83 7b 44 00          	cmp    DWORD PTR [rbx+0x44],0x0
   1400035f4:	48 8b d7             	mov    rdx,rdi
   1400035f7:	75 1b                	jne    0x140003614
   1400035f9:	44 8b 43 0c          	mov    r8d,DWORD PTR [rbx+0xc]
   1400035fd:	48 8b c7             	mov    rax,rdi
   140003600:	48 8b 4b 30          	mov    rcx,QWORD PTR [rbx+0x30]
   140003604:	44 2b 43 40          	sub    r8d,DWORD PTR [rbx+0x40]
   140003608:	48 2b c1             	sub    rax,rcx
   14000360b:	49 3b c0             	cmp    rax,r8
   14000360e:	76 04                	jbe    0x140003614
   140003610:	49 8d 14 08          	lea    rdx,[r8+rcx*1]
   140003614:	4c 8b c6             	mov    r8,rsi
   140003617:	48 8b cb             	mov    rcx,rbx
   14000361a:	e8 21 f2 ff ff       	call   0x140002840
   14000361f:	85 c0                	test   eax,eax
   140003621:	75 3d                	jne    0x140003660
   140003623:	8b 43 0c             	mov    eax,DWORD PTR [rbx+0xc]
   140003626:	39 43 40             	cmp    DWORD PTR [rbx+0x40],eax
   140003629:	72 03                	jb     0x14000362e
   14000362b:	89 43 44             	mov    DWORD PTR [rbx+0x44],eax
   14000362e:	48 8b d7             	mov    rdx,rdi
   140003631:	48 8b cb             	mov    rcx,rbx
   140003634:	e8 d7 0a 00 00       	call   0x140004110
   140003639:	48 39 7b 30          	cmp    QWORD PTR [rbx+0x30],rdi
   14000363d:	73 0f                	jae    0x14000364e
   14000363f:	48 39 73 20          	cmp    QWORD PTR [rbx+0x20],rsi
   140003643:	73 09                	jae    0x14000364e
   140003645:	81 7b 5c 12 01 00 00 	cmp    DWORD PTR [rbx+0x5c],0x112
   14000364c:	72 a2                	jb     0x1400035f0
   14000364e:	81 7b 5c 12 01 00 00 	cmp    DWORD PTR [rbx+0x5c],0x112
   140003655:	76 07                	jbe    0x14000365e
   140003657:	c7 43 5c 12 01 00 00 	mov    DWORD PTR [rbx+0x5c],0x112
   14000365e:	33 c0                	xor    eax,eax
   140003660:	48 8b 5c 24 30       	mov    rbx,QWORD PTR [rsp+0x30]
   140003665:	48 8b 74 24 38       	mov    rsi,QWORD PTR [rsp+0x38]
   14000366a:	48 83 c4 20          	add    rsp,0x20
   14000366e:	5f                   	pop    rdi
   14000366f:	c3                   	ret
   140003670:	4c 89 4c 24 20       	mov    QWORD PTR [rsp+0x20],r9
   140003675:	4c 89 44 24 18       	mov    QWORD PTR [rsp+0x18],r8
   14000367a:	48 89 54 24 10       	mov    QWORD PTR [rsp+0x10],rdx
   14000367f:	53                   	push   rbx
   140003680:	55                   	push   rbp
   140003681:	56                   	push   rsi
   140003682:	57                   	push   rdi
   140003683:	41 54                	push   r12
   140003685:	41 55                	push   r13
   140003687:	41 56                	push   r14
   140003689:	41 57                	push   r15
   14000368b:	48 83 ec 48          	sub    rsp,0x48
   14000368f:	49 8b 10             	mov    rdx,QWORD PTR [r8]
   140003692:	4d 8b f1             	mov    r14,r9
   140003695:	48 8b 84 24 b0 00 00 	mov    rax,QWORD PTR [rsp+0xb0]
   14000369c:	00 
   14000369d:	45 33 c9             	xor    r9d,r9d
   1400036a0:	48 8b d9             	mov    rbx,rcx
   1400036a3:	48 89 54 24 30       	mov    QWORD PTR [rsp+0x30],rdx
   1400036a8:	4c 8b 38             	mov    r15,QWORD PTR [rax]
   1400036ab:	4d 89 08             	mov    QWORD PTR [r8],r9
   1400036ae:	4c 89 7c 24 20       	mov    QWORD PTR [rsp+0x20],r15
   1400036b3:	4c 89 08             	mov    QWORD PTR [rax],r9
   1400036b6:	66 66 0f 1f 84 00 00 	data16 nop WORD PTR [rax+rax*1+0x0]
   1400036bd:	00 00 00 
   1400036c0:	48 8b 43 30          	mov    rax,QWORD PTR [rbx+0x30]
   1400036c4:	4c 8b 6b 38          	mov    r13,QWORD PTR [rbx+0x38]
   1400036c8:	48 89 44 24 28       	mov    QWORD PTR [rsp+0x28],rax
   1400036cd:	49 3b c5             	cmp    rax,r13
   1400036d0:	75 0c                	jne    0x1400036de
   1400036d2:	49 8b c1             	mov    rax,r9
   1400036d5:	4c 89 4b 30          	mov    QWORD PTR [rbx+0x30],r9
   1400036d9:	48 89 44 24 28       	mov    QWORD PTR [rsp+0x28],rax
   1400036de:	49 8b cd             	mov    rcx,r13
   1400036e1:	41 8b f9             	mov    edi,r9d
   1400036e4:	48 2b c8             	sub    rcx,rax
   1400036e7:	49 8b ef             	mov    rbp,r15
   1400036ea:	48 3b d1             	cmp    rdx,rcx
   1400036ed:	4d 8b e1             	mov    r12,r9
   1400036f0:	0f 46 bc 24 b8 00 00 	cmovbe edi,DWORD PTR [rsp+0xb8]
   1400036f7:	00 
   1400036f8:	48 03 c2             	add    rax,rdx
   1400036fb:	48 3b d1             	cmp    rdx,rcx
   1400036fe:	89 bc 24 90 00 00 00 	mov    DWORD PTR [rsp+0x90],edi
   140003705:	48 8b cb             	mov    rcx,rbx
   140003708:	4c 0f 46 e8          	cmovbe r13,rax
   14000370c:	49 8b d5             	mov    rdx,r13
   14000370f:	e8 fc 09 00 00       	call   0x140004110
   140003714:	48 8b b4 24 c0 00 00 	mov    rsi,QWORD PTR [rsp+0xc0]
   14000371b:	00 
   14000371c:	45 33 c0             	xor    r8d,r8d
   14000371f:	44 89 06             	mov    DWORD PTR [rsi],r8d
   140003722:	81 7b 5c 12 01 00 00 	cmp    DWORD PTR [rbx+0x5c],0x112
   140003729:	0f 84 aa 02 00 00    	je     0x1400039d9
   14000372f:	90                   	nop
   140003730:	83 7b 60 00          	cmp    DWORD PTR [rbx+0x60],0x0
   140003734:	74 70                	je     0x1400037a6
   140003736:	48 85 ed             	test   rbp,rbp
   140003739:	74 26                	je     0x140003761
   14000373b:	0f 1f 44 00 00       	nop    DWORD PTR [rax+rax*1+0x0]
   140003740:	8b 43 6c             	mov    eax,DWORD PTR [rbx+0x6c]
   140003743:	83 f8 05             	cmp    eax,0x5
   140003746:	73 19                	jae    0x140003761
   140003748:	8b c8                	mov    ecx,eax
   14000374a:	49 ff c4             	inc    r12
   14000374d:	41 0f b6 06          	movzx  eax,BYTE PTR [r14]
   140003751:	49 ff c6             	inc    r14
   140003754:	88 44 19 70          	mov    BYTE PTR [rcx+rbx*1+0x70],al
   140003758:	ff 43 6c             	inc    DWORD PTR [rbx+0x6c]
   14000375b:	48 83 ed 01          	sub    rbp,0x1
   14000375f:	75 df                	jne    0x140003740
   140003761:	83 7b 6c 05          	cmp    DWORD PTR [rbx+0x6c],0x5
   140003765:	0f 82 cd 01 00 00    	jb     0x140003938
   14000376b:	80 7b 70 00          	cmp    BYTE PTR [rbx+0x70],0x0
   14000376f:	0f 85 07 02 00 00    	jne    0x14000397c
   140003775:	0f b6 43 72          	movzx  eax,BYTE PTR [rbx+0x72]
   140003779:	0f b6 4b 71          	movzx  ecx,BYTE PTR [rbx+0x71]
   14000377d:	c1 e1 08             	shl    ecx,0x8
   140003780:	0b c8                	or     ecx,eax
   140003782:	0f b6 43 73          	movzx  eax,BYTE PTR [rbx+0x73]
   140003786:	c1 e1 08             	shl    ecx,0x8
   140003789:	0b c8                	or     ecx,eax
   14000378b:	0f b6 43 74          	movzx  eax,BYTE PTR [rbx+0x74]
   14000378f:	c1 e1 08             	shl    ecx,0x8
   140003792:	0b c8                	or     ecx,eax
   140003794:	c7 43 28 ff ff ff ff 	mov    DWORD PTR [rbx+0x28],0xffffffff
   14000379b:	89 4b 2c             	mov    DWORD PTR [rbx+0x2c],ecx
   14000379e:	44 89 43 60          	mov    DWORD PTR [rbx+0x60],r8d
   1400037a2:	44 89 43 6c          	mov    DWORD PTR [rbx+0x6c],r8d
   1400037a6:	45 8b f8             	mov    r15d,r8d
   1400037a9:	4c 39 6b 30          	cmp    QWORD PTR [rbx+0x30],r13
   1400037ad:	72 24                	jb     0x1400037d3
   1400037af:	8b 43 5c             	mov    eax,DWORD PTR [rbx+0x5c]
   1400037b2:	85 c0                	test   eax,eax
   1400037b4:	75 09                	jne    0x1400037bf
   1400037b6:	39 43 2c             	cmp    DWORD PTR [rbx+0x2c],eax
   1400037b9:	0f 84 94 01 00 00    	je     0x140003953
   1400037bf:	85 ff                	test   edi,edi
   1400037c1:	0f 84 c1 01 00 00    	je     0x140003988
   1400037c7:	85 c0                	test   eax,eax
   1400037c9:	0f 85 9f 01 00 00    	jne    0x14000396e
   1400037cf:	44 8d 78 01          	lea    r15d,[rax+0x1]
   1400037d3:	83 7b 64 00          	cmp    DWORD PTR [rbx+0x64],0x0
   1400037d7:	74 45                	je     0x14000381e
   1400037d9:	8b 4b 04             	mov    ecx,DWORD PTR [rbx+0x4]
   1400037dc:	ba 00 03 00 00       	mov    edx,0x300
   1400037e1:	03 0b                	add    ecx,DWORD PTR [rbx]
   1400037e3:	b8 00 04 00 00       	mov    eax,0x400
   1400037e8:	48 8b 7b 10          	mov    rdi,QWORD PTR [rbx+0x10]
   1400037ec:	d3 e2                	shl    edx,cl
   1400037ee:	0f b7 c0             	movzx  eax,ax
   1400037f1:	8d 8a 36 07 00 00    	lea    ecx,[rdx+0x736]
   1400037f7:	66 f3 ab             	rep stos WORD PTR es:[rdi],ax
   1400037fa:	c7 43 58 01 00 00 00 	mov    DWORD PTR [rbx+0x58],0x1
   140003801:	c7 43 54 01 00 00 00 	mov    DWORD PTR [rbx+0x54],0x1
   140003808:	c7 43 50 01 00 00 00 	mov    DWORD PTR [rbx+0x50],0x1
   14000380f:	c7 43 4c 01 00 00 00 	mov    DWORD PTR [rbx+0x4c],0x1
   140003816:	44 89 43 48          	mov    DWORD PTR [rbx+0x48],r8d
   14000381a:	44 89 43 64          	mov    DWORD PTR [rbx+0x64],r8d
   14000381e:	8b 7b 6c             	mov    edi,DWORD PTR [rbx+0x6c]
   140003821:	85 ff                	test   edi,edi
   140003823:	75 68                	jne    0x14000388d
   140003825:	48 83 fd 14          	cmp    rbp,0x14
   140003829:	72 0e                	jb     0x140003839
   14000382b:	45 85 ff             	test   r15d,r15d
   14000382e:	75 09                	jne    0x140003839
   140003830:	4c 8d 45 ec          	lea    r8,[rbp-0x14]
   140003834:	4d 03 c6             	add    r8,r14
   140003837:	eb 27                	jmp    0x140003860
   140003839:	4c 8b c5             	mov    r8,rbp
   14000383c:	49 8b d6             	mov    rdx,r14
   14000383f:	48 8b cb             	mov    rcx,rbx
   140003842:	e8 b9 02 00 00       	call   0x140003b00
   140003847:	85 c0                	test   eax,eax
   140003849:	0f 84 51 01 00 00    	je     0x1400039a0
   14000384f:	45 85 ff             	test   r15d,r15d
   140003852:	74 09                	je     0x14000385d
   140003854:	83 f8 02             	cmp    eax,0x2
   140003857:	0f 85 11 01 00 00    	jne    0x14000396e
   14000385d:	4d 8b c6             	mov    r8,r14
   140003860:	49 8b d5             	mov    rdx,r13
   140003863:	4c 89 73 20          	mov    QWORD PTR [rbx+0x20],r14
   140003867:	48 8b cb             	mov    rcx,rbx
   14000386a:	e8 61 fd ff ff       	call   0x1400035d0
   14000386f:	85 c0                	test   eax,eax
   140003871:	0f 85 05 01 00 00    	jne    0x14000397c
   140003877:	48 8b 4b 20          	mov    rcx,QWORD PTR [rbx+0x20]
   14000387b:	49 2b ce             	sub    rcx,r14
   14000387e:	4c 8b 73 20          	mov    r14,QWORD PTR [rbx+0x20]
   140003882:	48 2b e9             	sub    rbp,rcx
   140003885:	45 33 c0             	xor    r8d,r8d
   140003888:	e9 8f 00 00 00       	jmp    0x14000391c
   14000388d:	41 8b f0             	mov    esi,r8d
   140003890:	83 ff 14             	cmp    edi,0x14
   140003893:	73 25                	jae    0x1400038ba
   140003895:	48 8d 4b 70          	lea    rcx,[rbx+0x70]
   140003899:	48 03 cf             	add    rcx,rdi
   14000389c:	0f 1f 40 00          	nop    DWORD PTR [rax+0x0]
   1400038a0:	8b c6                	mov    eax,esi
   1400038a2:	48 3b c5             	cmp    rax,rbp
   1400038a5:	73 13                	jae    0x1400038ba
   1400038a7:	42 0f b6 04 30       	movzx  eax,BYTE PTR [rax+r14*1]
   1400038ac:	ff c7                	inc    edi
   1400038ae:	88 01                	mov    BYTE PTR [rcx],al
   1400038b0:	ff c6                	inc    esi
   1400038b2:	48 ff c1             	inc    rcx
   1400038b5:	83 ff 14             	cmp    edi,0x14
   1400038b8:	72 e6                	jb     0x1400038a0
   1400038ba:	89 7b 6c             	mov    DWORD PTR [rbx+0x6c],edi
   1400038bd:	83 ff 14             	cmp    edi,0x14
   1400038c0:	72 05                	jb     0x1400038c7
   1400038c2:	45 85 ff             	test   r15d,r15d
   1400038c5:	74 25                	je     0x1400038ec
   1400038c7:	44 8b c7             	mov    r8d,edi
   1400038ca:	48 8d 53 70          	lea    rdx,[rbx+0x70]
   1400038ce:	48 8b cb             	mov    rcx,rbx
   1400038d1:	e8 2a 02 00 00       	call   0x140003b00
   1400038d6:	85 c0                	test   eax,eax
   1400038d8:	0f 84 99 01 00 00    	je     0x140003a77
   1400038de:	45 85 ff             	test   r15d,r15d
   1400038e1:	74 09                	je     0x1400038ec
   1400038e3:	83 f8 02             	cmp    eax,0x2
   1400038e6:	0f 85 82 00 00 00    	jne    0x14000396e
   1400038ec:	4c 8d 43 70          	lea    r8,[rbx+0x70]
   1400038f0:	49 8b d5             	mov    rdx,r13
   1400038f3:	48 8b cb             	mov    rcx,rbx
   1400038f6:	4c 89 43 20          	mov    QWORD PTR [rbx+0x20],r8
   1400038fa:	e8 d1 fc ff ff       	call   0x1400035d0
   1400038ff:	85 c0                	test   eax,eax
   140003901:	75 79                	jne    0x14000397c
   140003903:	8b 43 20             	mov    eax,DWORD PTR [rbx+0x20]
   140003906:	8d 4e 90             	lea    ecx,[rsi-0x70]
   140003909:	2b c7                	sub    eax,edi
   14000390b:	2b c3                	sub    eax,ebx
   14000390d:	03 c8                	add    ecx,eax
   14000390f:	4c 03 f1             	add    r14,rcx
   140003912:	48 2b e9             	sub    rbp,rcx
   140003915:	45 33 c0             	xor    r8d,r8d
   140003918:	44 89 43 6c          	mov    DWORD PTR [rbx+0x6c],r8d
   14000391c:	4c 03 e1             	add    r12,rcx
   14000391f:	81 7b 5c 12 01 00 00 	cmp    DWORD PTR [rbx+0x5c],0x112
   140003926:	0f 84 a0 00 00 00    	je     0x1400039cc
   14000392c:	8b bc 24 90 00 00 00 	mov    edi,DWORD PTR [rsp+0x90]
   140003933:	e9 f8 fd ff ff       	jmp    0x140003730
   140003938:	48 8b 84 24 c0 00 00 	mov    rax,QWORD PTR [rsp+0xc0]
   14000393f:	00 
   140003940:	41 8b f8             	mov    edi,r8d
   140003943:	4c 8b 7c 24 20       	mov    r15,QWORD PTR [rsp+0x20]
   140003948:	c7 00 03 00 00 00    	mov    DWORD PTR [rax],0x3
   14000394e:	e9 9d 00 00 00       	jmp    0x1400039f0
   140003953:	48 8b 84 24 c0 00 00 	mov    rax,QWORD PTR [rsp+0xc0]
   14000395a:	00 
   14000395b:	41 8b f8             	mov    edi,r8d
   14000395e:	4c 8b 7c 24 20       	mov    r15,QWORD PTR [rsp+0x20]
   140003963:	c7 00 04 00 00 00    	mov    DWORD PTR [rax],0x4
   140003969:	e9 82 00 00 00       	jmp    0x1400039f0
   14000396e:	48 8b 84 24 c0 00 00 	mov    rax,QWORD PTR [rsp+0xc0]
   140003975:	00 
   140003976:	c7 00 02 00 00 00    	mov    DWORD PTR [rax],0x2
   14000397c:	4c 8b 7c 24 20       	mov    r15,QWORD PTR [rsp+0x20]
   140003981:	bf 01 00 00 00       	mov    edi,0x1
   140003986:	eb 68                	jmp    0x1400039f0
   140003988:	48 8b 84 24 c0 00 00 	mov    rax,QWORD PTR [rsp+0xc0]
   14000398f:	00 
   140003990:	41 8b f8             	mov    edi,r8d
   140003993:	4c 8b 7c 24 20       	mov    r15,QWORD PTR [rsp+0x20]
   140003998:	c7 00 02 00 00 00    	mov    DWORD PTR [rax],0x2
   14000399e:	eb 50                	jmp    0x1400039f0
   1400039a0:	48 8d 4b 70          	lea    rcx,[rbx+0x70]
   1400039a4:	4c 8b c5             	mov    r8,rbp
   1400039a7:	49 8b d6             	mov    rdx,r14
   1400039aa:	e8 21 d7 ff ff       	call   0x1400010d0
   1400039af:	4c 03 e5             	add    r12,rbp
   1400039b2:	89 6b 6c             	mov    DWORD PTR [rbx+0x6c],ebp
   1400039b5:	48 8b 84 24 c0 00 00 	mov    rax,QWORD PTR [rsp+0xc0]
   1400039bc:	00 
   1400039bd:	33 ff                	xor    edi,edi
   1400039bf:	4c 8b 7c 24 20       	mov    r15,QWORD PTR [rsp+0x20]
   1400039c4:	c7 00 03 00 00 00    	mov    DWORD PTR [rax],0x3
   1400039ca:	eb 24                	jmp    0x1400039f0
   1400039cc:	48 8b b4 24 c0 00 00 	mov    rsi,QWORD PTR [rsp+0xc0]
   1400039d3:	00 
   1400039d4:	4c 8b 7c 24 20       	mov    r15,QWORD PTR [rsp+0x20]
   1400039d9:	83 7b 2c 00          	cmp    DWORD PTR [rbx+0x2c],0x0
   1400039dd:	75 06                	jne    0x1400039e5
   1400039df:	c7 06 01 00 00 00    	mov    DWORD PTR [rsi],0x1
   1400039e5:	83 7b 2c 00          	cmp    DWORD PTR [rbx+0x2c],0x0
   1400039e9:	41 8b f8             	mov    edi,r8d
   1400039ec:	40 0f 95 c7          	setne  dil
   1400039f0:	48 8b 84 24 b0 00 00 	mov    rax,QWORD PTR [rsp+0xb0]
   1400039f7:	00 
   1400039f8:	4d 2b fc             	sub    r15,r12
   1400039fb:	4c 8b b4 24 a8 00 00 	mov    r14,QWORD PTR [rsp+0xa8]
   140003a02:	00 
   140003a03:	48 8b ac 24 98 00 00 	mov    rbp,QWORD PTR [rsp+0x98]
   140003a0a:	00 
   140003a0b:	4d 03 f4             	add    r14,r12
   140003a0e:	48 8b cd             	mov    rcx,rbp
   140003a11:	4c 89 b4 24 a8 00 00 	mov    QWORD PTR [rsp+0xa8],r14
   140003a18:	00 
   140003a19:	4c 01 20             	add    QWORD PTR [rax],r12
   140003a1c:	48 8b 73 30          	mov    rsi,QWORD PTR [rbx+0x30]
   140003a20:	48 8b 53 18          	mov    rdx,QWORD PTR [rbx+0x18]
   140003a24:	48 2b 74 24 28       	sub    rsi,QWORD PTR [rsp+0x28]
   140003a29:	48 03 54 24 28       	add    rdx,QWORD PTR [rsp+0x28]
   140003a2e:	4c 8b c6             	mov    r8,rsi
   140003a31:	4c 89 7c 24 20       	mov    QWORD PTR [rsp+0x20],r15
   140003a36:	e8 95 d6 ff ff       	call   0x1400010d0
   140003a3b:	48 8b 54 24 30       	mov    rdx,QWORD PTR [rsp+0x30]
   140003a40:	48 03 ee             	add    rbp,rsi
   140003a43:	4c 8b 84 24 a0 00 00 	mov    r8,QWORD PTR [rsp+0xa0]
   140003a4a:	00 
   140003a4b:	48 2b d6             	sub    rdx,rsi
   140003a4e:	48 89 ac 24 98 00 00 	mov    QWORD PTR [rsp+0x98],rbp
   140003a55:	00 
   140003a56:	48 89 54 24 30       	mov    QWORD PTR [rsp+0x30],rdx
   140003a5b:	49 01 30             	add    QWORD PTR [r8],rsi
   140003a5e:	85 ff                	test   edi,edi
   140003a60:	75 1f                	jne    0x140003a81
   140003a62:	48 85 f6             	test   rsi,rsi
   140003a65:	74 0c                	je     0x140003a73
   140003a67:	44 8b cf             	mov    r9d,edi
   140003a6a:	48 85 d2             	test   rdx,rdx
   140003a6d:	0f 85 4d fc ff ff    	jne    0x1400036c0
   140003a73:	33 c0                	xor    eax,eax
   140003a75:	eb 0c                	jmp    0x140003a83
   140003a77:	8b c6                	mov    eax,esi
   140003a79:	4c 03 e0             	add    r12,rax
   140003a7c:	e9 34 ff ff ff       	jmp    0x1400039b5
   140003a81:	8b c7                	mov    eax,edi
   140003a83:	48 83 c4 48          	add    rsp,0x48
   140003a87:	41 5f                	pop    r15
   140003a89:	41 5e                	pop    r14
   140003a8b:	41 5d                	pop    r13
   140003a8d:	41 5c                	pop    r12
   140003a8f:	5f                   	pop    rdi
   140003a90:	5e                   	pop    rsi
   140003a91:	5d                   	pop    rbp
   140003a92:	5b                   	pop    rbx
   140003a93:	c3                   	ret
   140003a94:	cc                   	int3
   140003a95:	cc                   	int3
   140003a96:	cc                   	int3
   140003a97:	cc                   	int3
   140003a98:	cc                   	int3
   140003a99:	cc                   	int3
   140003a9a:	cc                   	int3
   140003a9b:	cc                   	int3
   140003a9c:	cc                   	int3
   140003a9d:	cc                   	int3
   140003a9e:	cc                   	int3
   140003a9f:	cc                   	int3
   140003aa0:	48 89 5c 24 08       	mov    QWORD PTR [rsp+0x8],rbx
   140003aa5:	57                   	push   rdi
   140003aa6:	48 83 ec 20          	sub    rsp,0x20
   140003aaa:	48 8b da             	mov    rbx,rdx
   140003aad:	48 8b f9             	mov    rdi,rcx
   140003ab0:	48 8b 51 10          	mov    rdx,QWORD PTR [rcx+0x10]
   140003ab4:	48 8b cb             	mov    rcx,rbx
   140003ab7:	ff 53 08             	call   QWORD PTR [rbx+0x8]
   140003aba:	48 8b 57 18          	mov    rdx,QWORD PTR [rdi+0x18]
   140003abe:	48 8b cb             	mov    rcx,rbx
   140003ac1:	48 c7 47 10 00 00 00 	mov    QWORD PTR [rdi+0x10],0x0
   140003ac8:	00 
   140003ac9:	ff 53 08             	call   QWORD PTR [rbx+0x8]
   140003acc:	48 8b 5c 24 30       	mov    rbx,QWORD PTR [rsp+0x30]
   140003ad1:	48 c7 47 18 00 00 00 	mov    QWORD PTR [rdi+0x18],0x0
   140003ad8:	00 
   140003ad9:	48 83 c4 20          	add    rsp,0x20
   140003add:	5f                   	pop    rdi
   140003ade:	c3                   	ret
   140003adf:	cc                   	int3
   140003ae0:	33 c0                	xor    eax,eax
   140003ae2:	c7 41 60 01 00 00 00 	mov    DWORD PTR [rcx+0x60],0x1
   140003ae9:	48 89 41 30          	mov    QWORD PTR [rcx+0x30],rax
   140003aed:	89 41 5c             	mov    DWORD PTR [rcx+0x5c],eax
   140003af0:	89 41 6c             	mov    DWORD PTR [rcx+0x6c],eax
   140003af3:	48 89 41 40          	mov    QWORD PTR [rcx+0x40],rax
   140003af7:	c7 41 64 01 00 00 00 	mov    DWORD PTR [rcx+0x64],0x1
   140003afe:	c3                   	ret
   140003aff:	cc                   	int3
   140003b00:	48 89 5c 24 08       	mov    QWORD PTR [rsp+0x8],rbx
   140003b05:	48 89 6c 24 10       	mov    QWORD PTR [rsp+0x10],rbp
   140003b0a:	48 89 74 24 18       	mov    QWORD PTR [rsp+0x18],rsi
   140003b0f:	48 89 7c 24 20       	mov    QWORD PTR [rsp+0x20],rdi
   140003b14:	41 54                	push   r12
   140003b16:	41 55                	push   r13
   140003b18:	41 56                	push   r14
   140003b1a:	41 57                	push   r15
   140003b1c:	44 8b 49 28          	mov    r9d,DWORD PTR [rcx+0x28]
   140003b20:	4a 8d 1c 02          	lea    rbx,[rdx+r8*1]
   140003b24:	4c 8b 69 10          	mov    r13,QWORD PTR [rcx+0x10]
   140003b28:	4c 8b d9             	mov    r11,rcx
   140003b2b:	8b 71 48             	mov    esi,DWORD PTR [rcx+0x48]
   140003b2e:	41 be 01 00 00 00    	mov    r14d,0x1
   140003b34:	8b 69 40             	mov    ebp,DWORD PTR [rcx+0x40]
   140003b37:	44 8b fe             	mov    r15d,esi
   140003b3a:	8b 41 2c             	mov    eax,DWORD PTR [rcx+0x2c]
   140003b3d:	41 8b fe             	mov    edi,r14d
   140003b40:	8b 49 08             	mov    ecx,DWORD PTR [rcx+0x8]
   140003b43:	4c 8b d2             	mov    r10,rdx
   140003b46:	d3 e7                	shl    edi,cl
   140003b48:	ff cf                	dec    edi
   140003b4a:	41 c1 e7 04          	shl    r15d,0x4
   140003b4e:	23 fd                	and    edi,ebp
   140003b50:	8b cf                	mov    ecx,edi
   140003b52:	4c 03 f9             	add    r15,rcx
   140003b55:	43 0f b7 54 7d 00    	movzx  edx,WORD PTR [r13+r15*2+0x0]
   140003b5b:	41 81 f9 00 00 00 01 	cmp    r9d,0x1000000
   140003b62:	73 19                	jae    0x140003b7d
   140003b64:	4c 3b d3             	cmp    r10,rbx
   140003b67:	0f 83 9f 05 00 00    	jae    0x14000410c
   140003b6d:	41 0f b6 0a          	movzx  ecx,BYTE PTR [r10]
   140003b71:	c1 e0 08             	shl    eax,0x8
   140003b74:	0b c1                	or     eax,ecx
   140003b76:	41 c1 e1 08          	shl    r9d,0x8
   140003b7a:	49 ff c2             	inc    r10
   140003b7d:	41 8b c9             	mov    ecx,r9d
   140003b80:	c1 e9 0b             	shr    ecx,0xb
   140003b83:	0f af ca             	imul   ecx,edx
   140003b86:	3b c1                	cmp    eax,ecx
   140003b88:	0f 83 5d 01 00 00    	jae    0x140003ceb
   140003b8e:	41 83 7b 44 00       	cmp    DWORD PTR [r11+0x44],0x0
   140003b93:	4d 8d bd 6c 0e 00 00 	lea    r15,[r13+0xe6c]
   140003b9a:	44 8b c9             	mov    r9d,ecx
   140003b9d:	75 04                	jne    0x140003ba3
   140003b9f:	85 ed                	test   ebp,ebp
   140003ba1:	74 42                	je     0x140003be5
   140003ba3:	49 8b 53 30          	mov    rdx,QWORD PTR [r11+0x30]
   140003ba7:	48 85 d2             	test   rdx,rdx
   140003baa:	75 04                	jne    0x140003bb0
   140003bac:	49 8b 53 38          	mov    rdx,QWORD PTR [r11+0x38]
   140003bb0:	49 8b 4b 18          	mov    rcx,QWORD PTR [r11+0x18]
   140003bb4:	44 0f b6 44 0a ff    	movzx  r8d,BYTE PTR [rdx+rcx*1-0x1]
   140003bba:	b9 08 00 00 00       	mov    ecx,0x8
   140003bbf:	41 2a 0b             	sub    cl,BYTE PTR [r11]
   140003bc2:	41 8b d6             	mov    edx,r14d
   140003bc5:	41 d3 e8             	shr    r8d,cl
   140003bc8:	41 8b 4b 04          	mov    ecx,DWORD PTR [r11+0x4]
   140003bcc:	d3 e2                	shl    edx,cl
   140003bce:	41 8b 0b             	mov    ecx,DWORD PTR [r11]
   140003bd1:	ff ca                	dec    edx
   140003bd3:	23 d5                	and    edx,ebp
   140003bd5:	d3 e2                	shl    edx,cl
   140003bd7:	44 03 c2             	add    r8d,edx
   140003bda:	43 8d 0c 40          	lea    ecx,[r8+r8*2]
   140003bde:	c1 e1 08             	shl    ecx,0x8
   140003be1:	4d 8d 3c 4f          	lea    r15,[r15+rcx*2]
   140003be5:	45 33 ed             	xor    r13d,r13d
   140003be8:	49 8b cb             	mov    rcx,r11
   140003beb:	83 fe 07             	cmp    esi,0x7
   140003bee:	73 61                	jae    0x140003c51
   140003bf0:	41 8b d6             	mov    edx,r14d
   140003bf3:	bf 00 01 00 00       	mov    edi,0x100
   140003bf8:	0f 1f 84 00 00 00 00 	nop    DWORD PTR [rax+rax*1+0x0]
   140003bff:	00 
   140003c00:	8b ca                	mov    ecx,edx
   140003c02:	45 0f b7 04 4f       	movzx  r8d,WORD PTR [r15+rcx*2]
   140003c07:	41 81 f9 00 00 00 01 	cmp    r9d,0x1000000
   140003c0e:	73 19                	jae    0x140003c29
   140003c10:	4c 3b d3             	cmp    r10,rbx
   140003c13:	0f 83 f3 04 00 00    	jae    0x14000410c
   140003c19:	41 0f b6 0a          	movzx  ecx,BYTE PTR [r10]
   140003c1d:	c1 e0 08             	shl    eax,0x8
   140003c20:	0b c1                	or     eax,ecx
   140003c22:	41 c1 e1 08          	shl    r9d,0x8
   140003c26:	49 ff c2             	inc    r10
   140003c29:	41 8b c9             	mov    ecx,r9d
   140003c2c:	03 d2                	add    edx,edx
   140003c2e:	c1 e9 0b             	shr    ecx,0xb
   140003c31:	41 0f af c8          	imul   ecx,r8d
   140003c35:	3b c1                	cmp    eax,ecx
   140003c37:	73 05                	jae    0x140003c3e
   140003c39:	44 8b c9             	mov    r9d,ecx
   140003c3c:	eb 07                	jmp    0x140003c45
   140003c3e:	44 2b c9             	sub    r9d,ecx
   140003c41:	2b c1                	sub    eax,ecx
   140003c43:	ff c2                	inc    edx
   140003c45:	3b d7                	cmp    edx,edi
   140003c47:	72 b7                	jb     0x140003c00
   140003c49:	45 8b e6             	mov    r12d,r14d
   140003c4c:	e9 8b 04 00 00       	jmp    0x1400040dc
   140003c51:	45 8b 43 4c          	mov    r8d,DWORD PTR [r11+0x4c]
   140003c55:	49 8b 53 30          	mov    rdx,QWORD PTR [r11+0x30]
   140003c59:	49 3b d0             	cmp    rdx,r8
   140003c5c:	73 06                	jae    0x140003c64
   140003c5e:	48 8b 49 38          	mov    rcx,QWORD PTR [rcx+0x38]
   140003c62:	eb 03                	jmp    0x140003c67
   140003c64:	49 8b cd             	mov    rcx,r13
   140003c67:	49 2b d0             	sub    rdx,r8
   140003c6a:	bf 00 01 00 00       	mov    edi,0x100
   140003c6f:	48 03 d1             	add    rdx,rcx
   140003c72:	8b f7                	mov    esi,edi
   140003c74:	49 8b 4b 18          	mov    rcx,QWORD PTR [r11+0x18]
   140003c78:	45 8b de             	mov    r11d,r14d
   140003c7b:	0f b6 2c 0a          	movzx  ebp,BYTE PTR [rdx+rcx*1]
   140003c7f:	90                   	nop
   140003c80:	03 ed                	add    ebp,ebp
   140003c82:	41 8b cb             	mov    ecx,r11d
   140003c85:	44 8b c6             	mov    r8d,esi
   140003c88:	44 23 c5             	and    r8d,ebp
   140003c8b:	41 8b d0             	mov    edx,r8d
   140003c8e:	48 03 d1             	add    rdx,rcx
   140003c91:	8b ce                	mov    ecx,esi
   140003c93:	48 03 d1             	add    rdx,rcx
   140003c96:	41 0f b7 14 57       	movzx  edx,WORD PTR [r15+rdx*2]
   140003c9b:	41 81 f9 00 00 00 01 	cmp    r9d,0x1000000
   140003ca2:	73 19                	jae    0x140003cbd
   140003ca4:	4c 3b d3             	cmp    r10,rbx
   140003ca7:	0f 83 5f 04 00 00    	jae    0x14000410c
   140003cad:	41 0f b6 0a          	movzx  ecx,BYTE PTR [r10]
   140003cb1:	c1 e0 08             	shl    eax,0x8
   140003cb4:	0b c1                	or     eax,ecx
   140003cb6:	41 c1 e1 08          	shl    r9d,0x8
   140003cba:	49 ff c2             	inc    r10
   140003cbd:	41 8b c9             	mov    ecx,r9d
   140003cc0:	45 03 db             	add    r11d,r11d
   140003cc3:	c1 e9 0b             	shr    ecx,0xb
   140003cc6:	0f af ca             	imul   ecx,edx
   140003cc9:	3b c1                	cmp    eax,ecx
   140003ccb:	73 08                	jae    0x140003cd5
   140003ccd:	44 8b c9             	mov    r9d,ecx
   140003cd0:	41 f7 d0             	not    r8d
   140003cd3:	eb 08                	jmp    0x140003cdd
   140003cd5:	44 2b c9             	sub    r9d,ecx
   140003cd8:	2b c1                	sub    eax,ecx
   140003cda:	41 ff c3             	inc    r11d
   140003cdd:	44 3b df             	cmp    r11d,edi
   140003ce0:	0f 83 63 ff ff ff    	jae    0x140003c49
   140003ce6:	41 23 f0             	and    esi,r8d
   140003ce9:	eb 95                	jmp    0x140003c80
   140003ceb:	45 0f b7 84 75 80 01 	movzx  r8d,WORD PTR [r13+rsi*2+0x180]
   140003cf2:	00 00 
   140003cf4:	44 2b c9             	sub    r9d,ecx
   140003cf7:	2b c1                	sub    eax,ecx
   140003cf9:	48 8b d6             	mov    rdx,rsi
   140003cfc:	41 81 f9 00 00 00 01 	cmp    r9d,0x1000000
   140003d03:	73 19                	jae    0x140003d1e
   140003d05:	4c 3b d3             	cmp    r10,rbx
   140003d08:	0f 83 fe 03 00 00    	jae    0x14000410c
   140003d0e:	41 0f b6 0a          	movzx  ecx,BYTE PTR [r10]
   140003d12:	c1 e0 08             	shl    eax,0x8
   140003d15:	0b c1                	or     eax,ecx
   140003d17:	41 c1 e1 08          	shl    r9d,0x8
   140003d1b:	49 ff c2             	inc    r10
   140003d1e:	41 8b c9             	mov    ecx,r9d
   140003d21:	33 f6                	xor    esi,esi
   140003d23:	c1 e9 0b             	shr    ecx,0xb
   140003d26:	bd 03 00 00 00       	mov    ebp,0x3
   140003d2b:	41 0f af c8          	imul   ecx,r8d
   140003d2f:	3b c1                	cmp    eax,ecx
   140003d31:	73 14                	jae    0x140003d47
   140003d33:	44 8b c9             	mov    r9d,ecx
   140003d36:	44 8d 65 ff          	lea    r12d,[rbp-0x1]
   140003d3a:	b9 64 06 00 00       	mov    ecx,0x664
   140003d3f:	44 8b fe             	mov    r15d,esi
   140003d42:	e9 2d 01 00 00       	jmp    0x140003e74
   140003d47:	45 0f b7 84 55 98 01 	movzx  r8d,WORD PTR [r13+rdx*2+0x198]
   140003d4e:	00 00 
   140003d50:	44 2b c9             	sub    r9d,ecx
   140003d53:	2b c1                	sub    eax,ecx
   140003d55:	44 8b e5             	mov    r12d,ebp
   140003d58:	41 81 f9 00 00 00 01 	cmp    r9d,0x1000000
   140003d5f:	73 19                	jae    0x140003d7a
   140003d61:	4c 3b d3             	cmp    r10,rbx
   140003d64:	0f 83 a2 03 00 00    	jae    0x14000410c
   140003d6a:	41 0f b6 0a          	movzx  ecx,BYTE PTR [r10]
   140003d6e:	c1 e0 08             	shl    eax,0x8
   140003d71:	0b c1                	or     eax,ecx
   140003d73:	41 c1 e1 08          	shl    r9d,0x8
   140003d77:	49 ff c2             	inc    r10
   140003d7a:	41 8b c9             	mov    ecx,r9d
   140003d7d:	c1 e9 0b             	shr    ecx,0xb
   140003d80:	41 0f af c8          	imul   ecx,r8d
   140003d84:	3b c1                	cmp    eax,ecx
   140003d86:	73 56                	jae    0x140003dde
   140003d88:	43 0f b7 94 7d e0 01 	movzx  edx,WORD PTR [r13+r15*2+0x1e0]
   140003d8f:	00 00 
   140003d91:	44 8b c9             	mov    r9d,ecx
   140003d94:	81 f9 00 00 00 01    	cmp    ecx,0x1000000
   140003d9a:	73 19                	jae    0x140003db5
   140003d9c:	4c 3b d3             	cmp    r10,rbx
   140003d9f:	0f 83 67 03 00 00    	jae    0x14000410c
   140003da5:	41 0f b6 0a          	movzx  ecx,BYTE PTR [r10]
   140003da9:	c1 e0 08             	shl    eax,0x8
   140003dac:	0b c1                	or     eax,ecx
   140003dae:	41 c1 e1 08          	shl    r9d,0x8
   140003db2:	49 ff c2             	inc    r10
   140003db5:	41 8b c9             	mov    ecx,r9d
   140003db8:	c1 e9 0b             	shr    ecx,0xb
   140003dbb:	0f af ca             	imul   ecx,edx
   140003dbe:	3b c1                	cmp    eax,ecx
   140003dc0:	0f 83 9e 00 00 00    	jae    0x140003e64
   140003dc6:	81 f9 00 00 00 01    	cmp    ecx,0x1000000
   140003dcc:	73 09                	jae    0x140003dd7
   140003dce:	4c 3b d3             	cmp    r10,rbx
   140003dd1:	0f 83 35 03 00 00    	jae    0x14000410c
   140003dd7:	8b c5                	mov    eax,ebp
   140003dd9:	e9 11 03 00 00       	jmp    0x1400040ef
   140003dde:	45 0f b7 84 55 b0 01 	movzx  r8d,WORD PTR [r13+rdx*2+0x1b0]
   140003de5:	00 00 
   140003de7:	44 2b c9             	sub    r9d,ecx
   140003dea:	2b c1                	sub    eax,ecx
   140003dec:	41 81 f9 00 00 00 01 	cmp    r9d,0x1000000
   140003df3:	73 19                	jae    0x140003e0e
   140003df5:	4c 3b d3             	cmp    r10,rbx
   140003df8:	0f 83 0e 03 00 00    	jae    0x14000410c
   140003dfe:	41 0f b6 0a          	movzx  ecx,BYTE PTR [r10]
   140003e02:	c1 e0 08             	shl    eax,0x8
   140003e05:	0b c1                	or     eax,ecx
   140003e07:	41 c1 e1 08          	shl    r9d,0x8
   140003e0b:	49 ff c2             	inc    r10
   140003e0e:	41 8b c9             	mov    ecx,r9d
   140003e11:	c1 e9 0b             	shr    ecx,0xb
   140003e14:	41 0f af c8          	imul   ecx,r8d
   140003e18:	3b c1                	cmp    eax,ecx
   140003e1a:	73 05                	jae    0x140003e21
   140003e1c:	44 8b c9             	mov    r9d,ecx
   140003e1f:	eb 48                	jmp    0x140003e69
   140003e21:	45 0f b7 84 55 c8 01 	movzx  r8d,WORD PTR [r13+rdx*2+0x1c8]
   140003e28:	00 00 
   140003e2a:	44 2b c9             	sub    r9d,ecx
   140003e2d:	2b c1                	sub    eax,ecx
   140003e2f:	41 81 f9 00 00 00 01 	cmp    r9d,0x1000000
   140003e36:	73 19                	jae    0x140003e51
   140003e38:	4c 3b d3             	cmp    r10,rbx
   140003e3b:	0f 83 cb 02 00 00    	jae    0x14000410c
   140003e41:	41 0f b6 0a          	movzx  ecx,BYTE PTR [r10]
   140003e45:	c1 e0 08             	shl    eax,0x8
   140003e48:	0b c1                	or     eax,ecx
   140003e4a:	41 c1 e1 08          	shl    r9d,0x8
   140003e4e:	49 ff c2             	inc    r10
   140003e51:	41 8b c9             	mov    ecx,r9d
   140003e54:	c1 e9 0b             	shr    ecx,0xb
   140003e57:	41 0f af c8          	imul   ecx,r8d
   140003e5b:	3b c1                	cmp    eax,ecx
   140003e5d:	73 05                	jae    0x140003e64
   140003e5f:	44 8b c9             	mov    r9d,ecx
   140003e62:	eb 05                	jmp    0x140003e69
   140003e64:	44 2b c9             	sub    r9d,ecx
   140003e67:	2b c1                	sub    eax,ecx
   140003e69:	b9 68 0a 00 00       	mov    ecx,0xa68
   140003e6e:	41 bf 0c 00 00 00    	mov    r15d,0xc
   140003e74:	42 0f b7 14 29       	movzx  edx,WORD PTR [rcx+r13*1]
   140003e79:	4e 8d 04 29          	lea    r8,[rcx+r13*1]
   140003e7d:	41 81 f9 00 00 00 01 	cmp    r9d,0x1000000
   140003e84:	73 19                	jae    0x140003e9f
   140003e86:	4c 3b d3             	cmp    r10,rbx
   140003e89:	0f 83 7d 02 00 00    	jae    0x14000410c
   140003e8f:	41 0f b6 0a          	movzx  ecx,BYTE PTR [r10]
   140003e93:	c1 e0 08             	shl    eax,0x8
   140003e96:	0b c1                	or     eax,ecx
   140003e98:	41 c1 e1 08          	shl    r9d,0x8
   140003e9c:	49 ff c2             	inc    r10
   140003e9f:	41 8b c9             	mov    ecx,r9d
   140003ea2:	c1 e9 0b             	shr    ecx,0xb
   140003ea5:	0f af ca             	imul   ecx,edx
   140003ea8:	3b c1                	cmp    eax,ecx
   140003eaa:	73 1a                	jae    0x140003ec6
   140003eac:	44 8d 1c fd 00 00 00 	lea    r11d,[rdi*8+0x0]
   140003eb3:	00 
   140003eb4:	44 8b c9             	mov    r9d,ecx
   140003eb7:	4d 8d 5b 02          	lea    r11,[r11+0x2]
   140003ebb:	bf 08 00 00 00       	mov    edi,0x8
   140003ec0:	4f 8d 1c 58          	lea    r11,[r8+r11*2]
   140003ec4:	eb 6e                	jmp    0x140003f34
   140003ec6:	41 0f b7 50 02       	movzx  edx,WORD PTR [r8+0x2]
   140003ecb:	44 2b c9             	sub    r9d,ecx
   140003ece:	2b c1                	sub    eax,ecx
   140003ed0:	41 81 f9 00 00 00 01 	cmp    r9d,0x1000000
   140003ed7:	73 19                	jae    0x140003ef2
   140003ed9:	4c 3b d3             	cmp    r10,rbx
   140003edc:	0f 83 2a 02 00 00    	jae    0x14000410c
   140003ee2:	41 0f b6 0a          	movzx  ecx,BYTE PTR [r10]
   140003ee6:	c1 e0 08             	shl    eax,0x8
   140003ee9:	0b c1                	or     eax,ecx
   140003eeb:	41 c1 e1 08          	shl    r9d,0x8
   140003eef:	49 ff c2             	inc    r10
   140003ef2:	41 8b c9             	mov    ecx,r9d
   140003ef5:	c1 e9 0b             	shr    ecx,0xb
   140003ef8:	0f af ca             	imul   ecx,edx
   140003efb:	3b c1                	cmp    eax,ecx
   140003efd:	73 1f                	jae    0x140003f1e
   140003eff:	44 8d 1c fd 00 00 00 	lea    r11d,[rdi*8+0x0]
   140003f06:	00 
   140003f07:	44 8b c9             	mov    r9d,ecx
   140003f0a:	4d 8d 9b 82 00 00 00 	lea    r11,[r11+0x82]
   140003f11:	bf 08 00 00 00       	mov    edi,0x8
   140003f16:	4f 8d 1c 58          	lea    r11,[r8+r11*2]
   140003f1a:	8b f7                	mov    esi,edi
   140003f1c:	eb 16                	jmp    0x140003f34
   140003f1e:	44 2b c9             	sub    r9d,ecx
   140003f21:	4d 8d 98 04 02 00 00 	lea    r11,[r8+0x204]
   140003f28:	2b c1                	sub    eax,ecx
   140003f2a:	be 10 00 00 00       	mov    esi,0x10
   140003f2f:	bf 00 01 00 00       	mov    edi,0x100
   140003f34:	41 8b d6             	mov    edx,r14d
   140003f37:	66 0f 1f 84 00 00 00 	nop    WORD PTR [rax+rax*1+0x0]
   140003f3e:	00 00 
   140003f40:	8b ca                	mov    ecx,edx
   140003f42:	45 0f b7 04 4b       	movzx  r8d,WORD PTR [r11+rcx*2]
   140003f47:	41 81 f9 00 00 00 01 	cmp    r9d,0x1000000
   140003f4e:	73 19                	jae    0x140003f69
   140003f50:	4c 3b d3             	cmp    r10,rbx
   140003f53:	0f 83 b3 01 00 00    	jae    0x14000410c
   140003f59:	41 0f b6 0a          	movzx  ecx,BYTE PTR [r10]
   140003f5d:	c1 e0 08             	shl    eax,0x8
   140003f60:	0b c1                	or     eax,ecx
   140003f62:	41 c1 e1 08          	shl    r9d,0x8
   140003f66:	49 ff c2             	inc    r10
   140003f69:	41 8b c9             	mov    ecx,r9d
   140003f6c:	03 d2                	add    edx,edx
   140003f6e:	c1 e9 0b             	shr    ecx,0xb
   140003f71:	41 0f af c8          	imul   ecx,r8d
   140003f75:	3b c1                	cmp    eax,ecx
   140003f77:	73 05                	jae    0x140003f7e
   140003f79:	44 8b c9             	mov    r9d,ecx
   140003f7c:	eb 07                	jmp    0x140003f85
   140003f7e:	44 2b c9             	sub    r9d,ecx
   140003f81:	2b c1                	sub    eax,ecx
   140003f83:	ff c2                	inc    edx
   140003f85:	3b d7                	cmp    edx,edi
   140003f87:	72 b7                	jb     0x140003f40
   140003f89:	2b f7                	sub    esi,edi
   140003f8b:	03 d6                	add    edx,esi
   140003f8d:	41 83 ff 04          	cmp    r15d,0x4
   140003f91:	0f 83 42 01 00 00    	jae    0x1400040d9
   140003f97:	83 fa 04             	cmp    edx,0x4
   140003f9a:	45 8b c6             	mov    r8d,r14d
   140003f9d:	0f 42 ea             	cmovb  ebp,edx
   140003fa0:	c1 e5 06             	shl    ebp,0x6
   140003fa3:	4c 8d 1c 6d 00 00 00 	lea    r11,[rbp*2+0x0]
   140003faa:	00 
   140003fab:	4d 03 dd             	add    r11,r13
   140003fae:	66 90                	xchg   ax,ax
   140003fb0:	41 8b c8             	mov    ecx,r8d
   140003fb3:	41 0f b7 94 4b 60 03 	movzx  edx,WORD PTR [r11+rcx*2+0x360]
   140003fba:	00 00 
   140003fbc:	41 81 f9 00 00 00 01 	cmp    r9d,0x1000000
   140003fc3:	73 19                	jae    0x140003fde
   140003fc5:	4c 3b d3             	cmp    r10,rbx
   140003fc8:	0f 83 3e 01 00 00    	jae    0x14000410c
   140003fce:	41 0f b6 0a          	movzx  ecx,BYTE PTR [r10]
   140003fd2:	c1 e0 08             	shl    eax,0x8
   140003fd5:	0b c1                	or     eax,ecx
   140003fd7:	41 c1 e1 08          	shl    r9d,0x8
   140003fdb:	49 ff c2             	inc    r10
   140003fde:	41 8b c9             	mov    ecx,r9d
   140003fe1:	45 03 c0             	add    r8d,r8d
   140003fe4:	c1 e9 0b             	shr    ecx,0xb
   140003fe7:	0f af ca             	imul   ecx,edx
   140003fea:	3b c1                	cmp    eax,ecx
   140003fec:	73 05                	jae    0x140003ff3
   140003fee:	44 8b c9             	mov    r9d,ecx
   140003ff1:	eb 08                	jmp    0x140003ffb
   140003ff3:	44 2b c9             	sub    r9d,ecx
   140003ff6:	2b c1                	sub    eax,ecx
   140003ff8:	41 ff c0             	inc    r8d
   140003ffb:	41 83 f8 40          	cmp    r8d,0x40
   140003fff:	72 af                	jb     0x140003fb0
   140004001:	41 83 c0 c0          	add    r8d,0xffffffc0
   140004005:	41 83 f8 04          	cmp    r8d,0x4
   140004009:	0f 82 ca 00 00 00    	jb     0x1400040d9
   14000400f:	45 8b d8             	mov    r11d,r8d
   140004012:	41 d1 eb             	shr    r11d,1
   140004015:	41 ff cb             	dec    r11d
   140004018:	41 83 f8 0e          	cmp    r8d,0xe
   14000401c:	73 21                	jae    0x14000403f
   14000401e:	41 8b d0             	mov    edx,r8d
   140004021:	41 8b cb             	mov    ecx,r11d
   140004024:	41 23 d6             	and    edx,r14d
   140004027:	83 ca 02             	or     edx,0x2
   14000402a:	d3 e2                	shl    edx,cl
   14000402c:	41 8b c8             	mov    ecx,r8d
   14000402f:	4d 8d 85 5e 05 00 00 	lea    r8,[r13+0x55e]
   140004036:	48 2b d1             	sub    rdx,rcx
   140004039:	4d 8d 04 50          	lea    r8,[r8+rdx*2]
   14000403d:	eb 51                	jmp    0x140004090
   14000403f:	41 83 eb 04          	sub    r11d,0x4
   140004043:	41 81 f9 00 00 00 01 	cmp    r9d,0x1000000
   14000404a:	73 19                	jae    0x140004065
   14000404c:	4c 3b d3             	cmp    r10,rbx
   14000404f:	0f 83 b7 00 00 00    	jae    0x14000410c
   140004055:	41 0f b6 0a          	movzx  ecx,BYTE PTR [r10]
   140004059:	c1 e0 08             	shl    eax,0x8
   14000405c:	0b c1                	or     eax,ecx
   14000405e:	41 c1 e1 08          	shl    r9d,0x8
   140004062:	49 ff c2             	inc    r10
   140004065:	41 d1 e9             	shr    r9d,1
   140004068:	8b c8                	mov    ecx,eax
   14000406a:	41 2b c9             	sub    ecx,r9d
   14000406d:	c1 e9 1f             	shr    ecx,0x1f
   140004070:	ff c9                	dec    ecx
   140004072:	41 23 c9             	and    ecx,r9d
   140004075:	2b c1                	sub    eax,ecx
   140004077:	45 2b de             	sub    r11d,r14d
   14000407a:	75 c7                	jne    0x140004043
   14000407c:	4d 8d 85 44 06 00 00 	lea    r8,[r13+0x644]
   140004083:	41 bb 04 00 00 00    	mov    r11d,0x4
   140004089:	0f 1f 80 00 00 00 00 	nop    DWORD PTR [rax+0x0]
   140004090:	41 8b ce             	mov    ecx,r14d
   140004093:	41 0f b7 14 48       	movzx  edx,WORD PTR [r8+rcx*2]
   140004098:	41 81 f9 00 00 00 01 	cmp    r9d,0x1000000
   14000409f:	73 15                	jae    0x1400040b6
   1400040a1:	4c 3b d3             	cmp    r10,rbx
   1400040a4:	73 66                	jae    0x14000410c
   1400040a6:	41 0f b6 0a          	movzx  ecx,BYTE PTR [r10]
   1400040aa:	c1 e0 08             	shl    eax,0x8
   1400040ad:	0b c1                	or     eax,ecx
   1400040af:	41 c1 e1 08          	shl    r9d,0x8
   1400040b3:	49 ff c2             	inc    r10
   1400040b6:	41 8b c9             	mov    ecx,r9d
   1400040b9:	45 03 f6             	add    r14d,r14d
   1400040bc:	c1 e9 0b             	shr    ecx,0xb
   1400040bf:	0f af ca             	imul   ecx,edx
   1400040c2:	3b c1                	cmp    eax,ecx
   1400040c4:	73 05                	jae    0x1400040cb
   1400040c6:	44 8b c9             	mov    r9d,ecx
   1400040c9:	eb 08                	jmp    0x1400040d3
   1400040cb:	44 2b c9             	sub    r9d,ecx
   1400040ce:	2b c1                	sub    eax,ecx
   1400040d0:	41 ff c6             	inc    r14d
   1400040d3:	41 83 eb 01          	sub    r11d,0x1
   1400040d7:	75 b7                	jne    0x140004090
   1400040d9:	45 33 ed             	xor    r13d,r13d
   1400040dc:	41 81 f9 00 00 00 01 	cmp    r9d,0x1000000
   1400040e3:	73 07                	jae    0x1400040ec
   1400040e5:	4c 3b d3             	cmp    r10,rbx
   1400040e8:	45 0f 43 e5          	cmovae r12d,r13d
   1400040ec:	41 8b c4             	mov    eax,r12d
   1400040ef:	48 8b 5c 24 28       	mov    rbx,QWORD PTR [rsp+0x28]
   1400040f4:	48 8b 6c 24 30       	mov    rbp,QWORD PTR [rsp+0x30]
   1400040f9:	48 8b 74 24 38       	mov    rsi,QWORD PTR [rsp+0x38]
   1400040fe:	48 8b 7c 24 40       	mov    rdi,QWORD PTR [rsp+0x40]
   140004103:	41 5f                	pop    r15
   140004105:	41 5e                	pop    r14
   140004107:	41 5d                	pop    r13
   140004109:	41 5c                	pop    r12
   14000410b:	c3                   	ret
   14000410c:	33 c0                	xor    eax,eax
   14000410e:	eb df                	jmp    0x1400040ef
   140004110:	40 53                	rex push rbx
   140004112:	44 8b 51 5c          	mov    r10d,DWORD PTR [rcx+0x5c]
   140004116:	48 8b da             	mov    rbx,rdx
   140004119:	4c 8b c9             	mov    r9,rcx
   14000411c:	41 8d 42 ff          	lea    eax,[r10-0x1]
   140004120:	3d 10 01 00 00       	cmp    eax,0x110
   140004125:	0f 87 93 00 00 00    	ja     0x1400041be
   14000412b:	4c 8b 59 18          	mov    r11,QWORD PTR [rcx+0x18]
   14000412f:	41 8b d2             	mov    edx,r10d
   140004132:	4c 8b 41 30          	mov    r8,QWORD PTR [rcx+0x30]
   140004136:	48 89 74 24 10       	mov    QWORD PTR [rsp+0x10],rsi
   14000413b:	8b 71 4c             	mov    esi,DWORD PTR [rcx+0x4c]
   14000413e:	48 89 7c 24 18       	mov    QWORD PTR [rsp+0x18],rdi
   140004143:	48 8b 79 38          	mov    rdi,QWORD PTR [rcx+0x38]
   140004147:	48 8b cb             	mov    rcx,rbx
   14000414a:	49 2b c8             	sub    rcx,r8
   14000414d:	49 3b ca             	cmp    rcx,r10
   140004150:	73 05                	jae    0x140004157
   140004152:	8b d3                	mov    edx,ebx
   140004154:	41 2b d0             	sub    edx,r8d
   140004157:	41 83 79 44 00       	cmp    DWORD PTR [r9+0x44],0x0
   14000415c:	75 12                	jne    0x140004170
   14000415e:	41 8b 49 0c          	mov    ecx,DWORD PTR [r9+0xc]
   140004162:	8b c1                	mov    eax,ecx
   140004164:	41 2b 41 40          	sub    eax,DWORD PTR [r9+0x40]
   140004168:	3b c2                	cmp    eax,edx
   14000416a:	77 04                	ja     0x140004170
   14000416c:	41 89 49 44          	mov    DWORD PTR [r9+0x44],ecx
   140004170:	41 01 51 40          	add    DWORD PTR [r9+0x40],edx
   140004174:	44 2b d2             	sub    r10d,edx
   140004177:	45 89 51 5c          	mov    DWORD PTR [r9+0x5c],r10d
   14000417b:	85 d2                	test   edx,edx
   14000417d:	74 31                	je     0x1400041b0
   14000417f:	48 8b ce             	mov    rcx,rsi
   140004182:	0f 1f 40 00          	nop    DWORD PTR [rax+0x0]
   140004186:	66 66 0f 1f 84 00 00 	data16 nop WORD PTR [rax+rax*1+0x0]
   14000418d:	00 00 00 
   140004190:	33 c0                	xor    eax,eax
   140004192:	4c 3b c1             	cmp    r8,rcx
   140004195:	48 0f 42 c7          	cmovb  rax,rdi
   140004199:	48 2b c1             	sub    rax,rcx
   14000419c:	49 03 c0             	add    rax,r8
   14000419f:	42 0f b6 04 18       	movzx  eax,BYTE PTR [rax+r11*1]
   1400041a4:	43 88 04 18          	mov    BYTE PTR [r8+r11*1],al
   1400041a8:	49 ff c0             	inc    r8
   1400041ab:	83 c2 ff             	add    edx,0xffffffff
   1400041ae:	75 e0                	jne    0x140004190
   1400041b0:	48 8b 7c 24 18       	mov    rdi,QWORD PTR [rsp+0x18]
   1400041b5:	48 8b 74 24 10       	mov    rsi,QWORD PTR [rsp+0x10]
   1400041ba:	4d 89 41 30          	mov    QWORD PTR [r9+0x30],r8
   1400041be:	5b                   	pop    rbx
   1400041bf:	c3                   	ret
   1400041c0:	33 d2                	xor    edx,edx
   1400041c2:	4c 8d 05 d7 2e 00 00 	lea    r8,[rip+0x2ed7]        # 0x1400070a0
   1400041c9:	0f 1f 80 00 00 00 00 	nop    DWORD PTR [rax+0x0]
   1400041d0:	8b ca                	mov    ecx,edx
   1400041d2:	4d 8d 40 04          	lea    r8,[r8+0x4]
   1400041d6:	83 e1 01             	and    ecx,0x1
   1400041d9:	8b c2                	mov    eax,edx
   1400041db:	d1 e8                	shr    eax,1
   1400041dd:	f7 d9                	neg    ecx
   1400041df:	81 e1 20 83 b8 ed    	and    ecx,0xedb88320
   1400041e5:	ff c2                	inc    edx
   1400041e7:	33 c8                	xor    ecx,eax
   1400041e9:	8b c1                	mov    eax,ecx
   1400041eb:	d1 e9                	shr    ecx,1
   1400041ed:	83 e0 01             	and    eax,0x1
   1400041f0:	f7 d8                	neg    eax
   1400041f2:	25 20 83 b8 ed       	and    eax,0xedb88320
   1400041f7:	33 c1                	xor    eax,ecx
   1400041f9:	8b c8                	mov    ecx,eax
   1400041fb:	d1 e8                	shr    eax,1
   1400041fd:	83 e1 01             	and    ecx,0x1
   140004200:	f7 d9                	neg    ecx
   140004202:	81 e1 20 83 b8 ed    	and    ecx,0xedb88320
   140004208:	33 c8                	xor    ecx,eax
   14000420a:	8b c1                	mov    eax,ecx
   14000420c:	d1 e9                	shr    ecx,1
   14000420e:	83 e0 01             	and    eax,0x1
   140004211:	f7 d8                	neg    eax
   140004213:	25 20 83 b8 ed       	and    eax,0xedb88320
   140004218:	33 c1                	xor    eax,ecx
   14000421a:	8b c8                	mov    ecx,eax
   14000421c:	d1 e8                	shr    eax,1
   14000421e:	83 e1 01             	and    ecx,0x1
   140004221:	f7 d9                	neg    ecx
   140004223:	81 e1 20 83 b8 ed    	and    ecx,0xedb88320
   140004229:	33 c8                	xor    ecx,eax
   14000422b:	8b c1                	mov    eax,ecx
   14000422d:	d1 e9                	shr    ecx,1
   14000422f:	83 e0 01             	and    eax,0x1
   140004232:	f7 d8                	neg    eax
   140004234:	25 20 83 b8 ed       	and    eax,0xedb88320
   140004239:	33 c1                	xor    eax,ecx
   14000423b:	8b c8                	mov    ecx,eax
   14000423d:	d1 e8                	shr    eax,1
   14000423f:	83 e1 01             	and    ecx,0x1
   140004242:	f7 d9                	neg    ecx
   140004244:	81 e1 20 83 b8 ed    	and    ecx,0xedb88320
   14000424a:	33 c8                	xor    ecx,eax
   14000424c:	8b c1                	mov    eax,ecx
   14000424e:	d1 e9                	shr    ecx,1
   140004250:	83 e0 01             	and    eax,0x1
   140004253:	f7 d8                	neg    eax
   140004255:	25 20 83 b8 ed       	and    eax,0xedb88320
   14000425a:	33 c1                	xor    eax,ecx
   14000425c:	41 89 40 fc          	mov    DWORD PTR [r8-0x4],eax
   140004260:	81 fa 00 01 00 00    	cmp    edx,0x100
   140004266:	0f 82 64 ff ff ff    	jb     0x1400041d0
   14000426c:	c3                   	ret
   14000426d:	cc                   	int3
   14000426e:	cc                   	int3
   14000426f:	cc                   	int3
   140004270:	4d 85 c0             	test   r8,r8
   140004273:	74 29                	je     0x14000429e
   140004275:	4c 8d 15 24 2e 00 00 	lea    r10,[rip+0x2e24]        # 0x1400070a0
   14000427c:	0f 1f 40 00          	nop    DWORD PTR [rax+0x0]
   140004280:	44 0f b6 0a          	movzx  r9d,BYTE PTR [rdx]
   140004284:	48 8d 52 01          	lea    rdx,[rdx+0x1]
   140004288:	8b c1                	mov    eax,ecx
   14000428a:	c1 e9 08             	shr    ecx,0x8
   14000428d:	4c 33 c8             	xor    r9,rax
   140004290:	41 0f b6 c1          	movzx  eax,r9b
   140004294:	41 33 0c 82          	xor    ecx,DWORD PTR [r10+rax*4]
   140004298:	49 83 e8 01          	sub    r8,0x1
   14000429c:	75 e2                	jne    0x140004280
   14000429e:	8b c1                	mov    eax,ecx
   1400042a0:	c3                   	ret
   1400042a1:	cc                   	int3
   1400042a2:	cc                   	int3
   1400042a3:	cc                   	int3
   1400042a4:	cc                   	int3
   1400042a5:	cc                   	int3
   1400042a6:	cc                   	int3
   1400042a7:	cc                   	int3
   1400042a8:	cc                   	int3
   1400042a9:	cc                   	int3
   1400042aa:	cc                   	int3
   1400042ab:	cc                   	int3
   1400042ac:	cc                   	int3
   1400042ad:	cc                   	int3
   1400042ae:	cc                   	int3
   1400042af:	cc                   	int3
   1400042b0:	48 8b 41 10          	mov    rax,QWORD PTR [rcx+0x10]
   1400042b4:	48 85 c0             	test   rax,rax
   1400042b7:	74 07                	je     0x1400042c0
   1400042b9:	48 8b 49 18          	mov    rcx,QWORD PTR [rcx+0x18]
   1400042bd:	48 ff e0             	rex.W jmp rax
   1400042c0:	48 8b ca             	mov    rcx,rdx
   1400042c3:	48 ff 25 a6 1e 00 00 	rex.W jmp QWORD PTR [rip+0x1ea6]        # 0x140006170
   1400042ca:	cc                   	int3
   1400042cb:	cc                   	int3
   1400042cc:	cc                   	int3
   1400042cd:	cc                   	int3
   1400042ce:	cc                   	int3
   1400042cf:	cc                   	int3
   1400042d0:	48 8b 41 20          	mov    rax,QWORD PTR [rcx+0x20]
   1400042d4:	48 85 c0             	test   rax,rax
   1400042d7:	74 07                	je     0x1400042e0
   1400042d9:	48 8b 49 18          	mov    rcx,QWORD PTR [rcx+0x18]
   1400042dd:	48 ff e0             	rex.W jmp rax
   1400042e0:	48 8b ca             	mov    rcx,rdx
   1400042e3:	48 ff 25 7e 1e 00 00 	rex.W jmp QWORD PTR [rip+0x1e7e]        # 0x140006168
   1400042ea:	cc                   	int3
   1400042eb:	cc                   	int3
   1400042ec:	cc                   	int3
   1400042ed:	cc                   	int3
   1400042ee:	cc                   	int3
   1400042ef:	cc                   	int3
   1400042f0:	48 8d 05 b9 ff ff ff 	lea    rax,[rip+0xffffffffffffffb9]        # 0x1400042b0
   1400042f7:	48 89 51 10          	mov    QWORD PTR [rcx+0x10],rdx
   1400042fb:	48 89 01             	mov    QWORD PTR [rcx],rax
   1400042fe:	48 8d 05 cb ff ff ff 	lea    rax,[rip+0xffffffffffffffcb]        # 0x1400042d0
   140004305:	48 89 41 08          	mov    QWORD PTR [rcx+0x8],rax
   140004309:	48 8b 44 24 28       	mov    rax,QWORD PTR [rsp+0x28]
   14000430e:	48 89 41 28          	mov    QWORD PTR [rcx+0x28],rax
   140004312:	4c 89 41 18          	mov    QWORD PTR [rcx+0x18],r8
   140004316:	4c 89 49 20          	mov    QWORD PTR [rcx+0x20],r9
   14000431a:	c3                   	ret
   14000431b:	cc                   	int3
   14000431c:	cc                   	int3
   14000431d:	cc                   	int3
   14000431e:	cc                   	int3
   14000431f:	cc                   	int3
   140004320:	0f 57 c0             	xorps  xmm0,xmm0
   140004323:	33 c0                	xor    eax,eax
   140004325:	0f 11 01             	movups XMMWORD PTR [rcx],xmm0
   140004328:	48 89 41 10          	mov    QWORD PTR [rcx+0x10],rax
   14000432c:	c3                   	ret
   14000432d:	cc                   	int3
   14000432e:	cc                   	int3
   14000432f:	cc                   	int3
   140004330:	48 8d 05 e9 ff ff ff 	lea    rax,[rip+0xffffffffffffffe9]        # 0x140004320
   140004337:	c7 01 0d 00 00 00    	mov    DWORD PTR [rcx],0xd
   14000433d:	48 89 41 08          	mov    QWORD PTR [rcx+0x8],rax
   140004341:	48 8d 05 28 00 00 00 	lea    rax,[rip+0x28]        # 0x140004370
   140004348:	48 89 41 10          	mov    QWORD PTR [rcx+0x10],rax
   14000434c:	48 8d 05 bd 01 00 00 	lea    rax,[rip+0x1bd]        # 0x140004510
   140004353:	48 89 41 18          	mov    QWORD PTR [rcx+0x18],rax
   140004357:	33 c0                	xor    eax,eax
   140004359:	89 41 20             	mov    DWORD PTR [rcx+0x20],eax
   14000435c:	48 89 41 28          	mov    QWORD PTR [rcx+0x28],rax
   140004360:	c3                   	ret
   140004361:	cc                   	int3
   140004362:	cc                   	int3
   140004363:	cc                   	int3
   140004364:	cc                   	int3
   140004365:	cc                   	int3
   140004366:	cc                   	int3
   140004367:	cc                   	int3
   140004368:	cc                   	int3
   140004369:	cc                   	int3
   14000436a:	cc                   	int3
   14000436b:	cc                   	int3
   14000436c:	cc                   	int3
   14000436d:	cc                   	int3
   14000436e:	cc                   	int3
   14000436f:	cc                   	int3
   140004370:	0f b6 01             	movzx  eax,BYTE PTR [rcx]
   140004373:	4c 8b d2             	mov    r10,rdx
   140004376:	4c 8b d9             	mov    r11,rcx
   140004379:	3c e1                	cmp    al,0xe1
   14000437b:	0f 87 84 01 00 00    	ja     0x140004505
   140004381:	44 8b c8             	mov    r9d,eax
   140004384:	b8 6d c1 16 6c       	mov    eax,0x6c16c16d
   140004389:	41 f7 e1             	mul    r9d
   14000438c:	45 8b c1             	mov    r8d,r9d
   14000438f:	41 8b c9             	mov    ecx,r9d
   140004392:	44 2b c2             	sub    r8d,edx
   140004395:	b8 6d c1 16 6c       	mov    eax,0x6c16c16d
   14000439a:	41 d1 e8             	shr    r8d,1
   14000439d:	44 03 c2             	add    r8d,edx
   1400043a0:	41 f7 e1             	mul    r9d
   1400043a3:	41 8b c1             	mov    eax,r9d
   1400043a6:	41 c1 e8 05          	shr    r8d,0x5
   1400043aa:	2b c2                	sub    eax,edx
   1400043ac:	45 88 02             	mov    BYTE PTR [r10],r8b
   1400043af:	d1 e8                	shr    eax,1
   1400043b1:	45 33 c0             	xor    r8d,r8d
   1400043b4:	03 c2                	add    eax,edx
   1400043b6:	c1 e8 05             	shr    eax,0x5
   1400043b9:	6b c0 2d             	imul   eax,eax,0x2d
   1400043bc:	2b c8                	sub    ecx,eax
   1400043be:	b8 39 8e e3 38       	mov    eax,0x38e38e39
   1400043c3:	f7 e9                	imul   ecx
   1400043c5:	b8 39 8e e3 38       	mov    eax,0x38e38e39
   1400043ca:	d1 fa                	sar    edx,1
   1400043cc:	8b ca                	mov    ecx,edx
   1400043ce:	c1 e9 1f             	shr    ecx,0x1f
   1400043d1:	03 d1                	add    edx,ecx
   1400043d3:	41 88 52 01          	mov    BYTE PTR [r10+0x1],dl
   1400043d7:	41 f7 e1             	mul    r9d
   1400043da:	d1 ea                	shr    edx,1
   1400043dc:	8d 04 d2             	lea    eax,[rdx+rdx*8]
   1400043df:	44 2b c8             	sub    r9d,eax
   1400043e2:	45 88 4a 02          	mov    BYTE PTR [r10+0x2],r9b
   1400043e6:	45 89 42 10          	mov    DWORD PTR [r10+0x10],r8d
   1400043ea:	41 0f b6 43 01       	movzx  eax,BYTE PTR [r11+0x1]
   1400043ef:	41 89 42 10          	mov    DWORD PTR [r10+0x10],eax
   1400043f3:	41 0f b6 4b 02       	movzx  ecx,BYTE PTR [r11+0x2]
   1400043f8:	c1 e1 08             	shl    ecx,0x8
   1400043fb:	03 c8                	add    ecx,eax
   1400043fd:	41 89 4a 10          	mov    DWORD PTR [r10+0x10],ecx
   140004401:	41 0f b6 53 03       	movzx  edx,BYTE PTR [r11+0x3]
   140004406:	c1 e2 10             	shl    edx,0x10
   140004409:	03 d1                	add    edx,ecx
   14000440b:	41 89 52 10          	mov    DWORD PTR [r10+0x10],edx
   14000440f:	41 0f b6 43 04       	movzx  eax,BYTE PTR [r11+0x4]
   140004414:	c1 e0 18             	shl    eax,0x18
   140004417:	03 c2                	add    eax,edx
   140004419:	41 89 42 10          	mov    DWORD PTR [r10+0x10],eax
   14000441d:	3d 00 00 00 10       	cmp    eax,0x10000000
   140004422:	0f 87 dd 00 00 00    	ja     0x140004505
   140004428:	41 c6 42 03 01       	mov    BYTE PTR [r10+0x3],0x1
   14000442d:	4d 89 42 08          	mov    QWORD PTR [r10+0x8],r8
   140004431:	41 0f b6 4b 05       	movzx  ecx,BYTE PTR [r11+0x5]
   140004436:	49 89 4a 08          	mov    QWORD PTR [r10+0x8],rcx
   14000443a:	41 80 7b 05 ff       	cmp    BYTE PTR [r11+0x5],0xff
   14000443f:	74 04                	je     0x140004445
   140004441:	45 88 42 03          	mov    BYTE PTR [r10+0x3],r8b
   140004445:	41 0f b6 53 06       	movzx  edx,BYTE PTR [r11+0x6]
   14000444a:	48 c1 e2 08          	shl    rdx,0x8
   14000444e:	48 03 d1             	add    rdx,rcx
   140004451:	49 89 52 08          	mov    QWORD PTR [r10+0x8],rdx
   140004455:	41 80 7b 06 ff       	cmp    BYTE PTR [r11+0x6],0xff
   14000445a:	74 04                	je     0x140004460
   14000445c:	45 88 42 03          	mov    BYTE PTR [r10+0x3],r8b
   140004460:	41 0f b6 4b 07       	movzx  ecx,BYTE PTR [r11+0x7]
   140004465:	48 c1 e1 10          	shl    rcx,0x10
   140004469:	48 03 ca             	add    rcx,rdx
   14000446c:	49 89 4a 08          	mov    QWORD PTR [r10+0x8],rcx
   140004470:	41 80 7b 07 ff       	cmp    BYTE PTR [r11+0x7],0xff
   140004475:	74 04                	je     0x14000447b
   140004477:	45 88 42 03          	mov    BYTE PTR [r10+0x3],r8b
   14000447b:	41 0f b6 53 08       	movzx  edx,BYTE PTR [r11+0x8]
   140004480:	48 c1 e2 18          	shl    rdx,0x18
   140004484:	48 03 d1             	add    rdx,rcx
   140004487:	49 89 52 08          	mov    QWORD PTR [r10+0x8],rdx
   14000448b:	41 80 7b 08 ff       	cmp    BYTE PTR [r11+0x8],0xff
   140004490:	74 04                	je     0x140004496
   140004492:	45 88 42 03          	mov    BYTE PTR [r10+0x3],r8b
   140004496:	41 0f b6 4b 09       	movzx  ecx,BYTE PTR [r11+0x9]
   14000449b:	48 c1 e1 20          	shl    rcx,0x20
   14000449f:	48 03 ca             	add    rcx,rdx
   1400044a2:	49 89 4a 08          	mov    QWORD PTR [r10+0x8],rcx
   1400044a6:	41 80 7b 09 ff       	cmp    BYTE PTR [r11+0x9],0xff
   1400044ab:	74 04                	je     0x1400044b1
   1400044ad:	45 88 42 03          	mov    BYTE PTR [r10+0x3],r8b
   1400044b1:	41 0f b6 53 0a       	movzx  edx,BYTE PTR [r11+0xa]
   1400044b6:	48 c1 e2 28          	shl    rdx,0x28
   1400044ba:	48 03 d1             	add    rdx,rcx
   1400044bd:	49 89 52 08          	mov    QWORD PTR [r10+0x8],rdx
   1400044c1:	41 80 7b 0a ff       	cmp    BYTE PTR [r11+0xa],0xff
   1400044c6:	74 04                	je     0x1400044cc
   1400044c8:	45 88 42 03          	mov    BYTE PTR [r10+0x3],r8b
   1400044cc:	41 0f b6 4b 0b       	movzx  ecx,BYTE PTR [r11+0xb]
   1400044d1:	48 c1 e1 30          	shl    rcx,0x30
   1400044d5:	48 03 ca             	add    rcx,rdx
   1400044d8:	49 89 4a 08          	mov    QWORD PTR [r10+0x8],rcx
   1400044dc:	41 80 7b 0b ff       	cmp    BYTE PTR [r11+0xb],0xff
   1400044e1:	74 04                	je     0x1400044e7
   1400044e3:	45 88 42 03          	mov    BYTE PTR [r10+0x3],r8b
   1400044e7:	41 0f b6 43 0c       	movzx  eax,BYTE PTR [r11+0xc]
   1400044ec:	48 c1 e0 38          	shl    rax,0x38
   1400044f0:	48 03 c1             	add    rax,rcx
   1400044f3:	49 89 42 08          	mov    QWORD PTR [r10+0x8],rax
   1400044f7:	41 80 7b 0c ff       	cmp    BYTE PTR [r11+0xc],0xff
   1400044fc:	74 04                	je     0x140004502
   1400044fe:	45 88 42 03          	mov    BYTE PTR [r10+0x3],r8b
   140004502:	33 c0                	xor    eax,eax
   140004504:	c3                   	ret
   140004505:	b8 01 00 00 00       	mov    eax,0x1
   14000450a:	c3                   	ret
   14000450b:	cc                   	int3
   14000450c:	cc                   	int3
   14000450d:	cc                   	int3
   14000450e:	cc                   	int3
   14000450f:	cc                   	int3
   140004510:	33 c0                	xor    eax,eax
   140004512:	48 89 01             	mov    QWORD PTR [rcx],rax
   140004515:	89 41 08             	mov    DWORD PTR [rcx+0x8],eax
   140004518:	88 41 0c             	mov    BYTE PTR [rcx+0xc],al
   14000451b:	0f b6 42 01          	movzx  eax,BYTE PTR [rdx+0x1]
   14000451f:	44 6b c0 6b          	imul   r8d,eax,0x6b
   140004523:	0f b6 02             	movzx  eax,BYTE PTR [rdx]
   140004526:	44 6b c8 2d          	imul   r9d,eax,0x2d
   14000452a:	45 2a c8             	sub    r9b,r8b
   14000452d:	44 02 4a 02          	add    r9b,BYTE PTR [rdx+0x2]
   140004531:	44 88 09             	mov    BYTE PTR [rcx],r9b
   140004534:	0f b6 42 10          	movzx  eax,BYTE PTR [rdx+0x10]
   140004538:	88 41 01             	mov    BYTE PTR [rcx+0x1],al
   14000453b:	8b 42 10             	mov    eax,DWORD PTR [rdx+0x10]
   14000453e:	c1 e8 08             	shr    eax,0x8
   140004541:	88 41 02             	mov    BYTE PTR [rcx+0x2],al
   140004544:	0f b6 42 12          	movzx  eax,BYTE PTR [rdx+0x12]
   140004548:	88 41 03             	mov    BYTE PTR [rcx+0x3],al
   14000454b:	0f b6 42 13          	movzx  eax,BYTE PTR [rdx+0x13]
   14000454f:	88 41 04             	mov    BYTE PTR [rcx+0x4],al
   140004552:	80 7a 03 00          	cmp    BYTE PTR [rdx+0x3],0x0
   140004556:	74 04                	je     0x14000455c
   140004558:	32 c0                	xor    al,al
   14000455a:	eb 04                	jmp    0x140004560
   14000455c:	0f b6 42 08          	movzx  eax,BYTE PTR [rdx+0x8]
   140004560:	88 41 05             	mov    BYTE PTR [rcx+0x5],al
   140004563:	80 7a 03 00          	cmp    BYTE PTR [rdx+0x3],0x0
   140004567:	74 04                	je     0x14000456d
   140004569:	32 c0                	xor    al,al
   14000456b:	eb 07                	jmp    0x140004574
   14000456d:	8b 42 08             	mov    eax,DWORD PTR [rdx+0x8]
   140004570:	48 c1 e8 08          	shr    rax,0x8
   140004574:	88 41 06             	mov    BYTE PTR [rcx+0x6],al
   140004577:	80 7a 03 00          	cmp    BYTE PTR [rdx+0x3],0x0
   14000457b:	74 04                	je     0x140004581
   14000457d:	32 c0                	xor    al,al
   14000457f:	eb 07                	jmp    0x140004588
   140004581:	8b 42 08             	mov    eax,DWORD PTR [rdx+0x8]
   140004584:	48 c1 e8 10          	shr    rax,0x10
   140004588:	88 41 07             	mov    BYTE PTR [rcx+0x7],al
   14000458b:	80 7a 03 00          	cmp    BYTE PTR [rdx+0x3],0x0
   14000458f:	74 04                	je     0x140004595
   140004591:	32 c0                	xor    al,al
   140004593:	eb 07                	jmp    0x14000459c
   140004595:	8b 42 08             	mov    eax,DWORD PTR [rdx+0x8]
   140004598:	48 c1 e8 18          	shr    rax,0x18
   14000459c:	88 41 08             	mov    BYTE PTR [rcx+0x8],al
   14000459f:	80 7a 03 00          	cmp    BYTE PTR [rdx+0x3],0x0
   1400045a3:	74 04                	je     0x1400045a9
   1400045a5:	32 c0                	xor    al,al
   1400045a7:	eb 08                	jmp    0x1400045b1
   1400045a9:	48 8b 42 08          	mov    rax,QWORD PTR [rdx+0x8]
   1400045ad:	48 c1 e8 20          	shr    rax,0x20
   1400045b1:	88 41 09             	mov    BYTE PTR [rcx+0x9],al
   1400045b4:	80 7a 03 00          	cmp    BYTE PTR [rdx+0x3],0x0
   1400045b8:	74 04                	je     0x1400045be
   1400045ba:	32 c0                	xor    al,al
   1400045bc:	eb 08                	jmp    0x1400045c6
   1400045be:	48 8b 42 08          	mov    rax,QWORD PTR [rdx+0x8]
   1400045c2:	48 c1 e8 28          	shr    rax,0x28
   1400045c6:	88 41 0a             	mov    BYTE PTR [rcx+0xa],al
   1400045c9:	80 7a 03 00          	cmp    BYTE PTR [rdx+0x3],0x0
   1400045cd:	74 04                	je     0x1400045d3
   1400045cf:	32 c0                	xor    al,al
   1400045d1:	eb 04                	jmp    0x1400045d7
   1400045d3:	0f b6 42 0e          	movzx  eax,BYTE PTR [rdx+0xe]
   1400045d7:	88 41 0b             	mov    BYTE PTR [rcx+0xb],al
   1400045da:	80 7a 03 00          	cmp    BYTE PTR [rdx+0x3],0x0
   1400045de:	74 07                	je     0x1400045e7
   1400045e0:	c6 41 0c 00          	mov    BYTE PTR [rcx+0xc],0x0
   1400045e4:	33 c0                	xor    eax,eax
   1400045e6:	c3                   	ret
   1400045e7:	0f b6 42 0f          	movzx  eax,BYTE PTR [rdx+0xf]
   1400045eb:	88 41 0c             	mov    BYTE PTR [rcx+0xc],al
   1400045ee:	33 c0                	xor    eax,eax
   1400045f0:	c3                   	ret
   1400045f1:	cc                   	int3
   1400045f2:	cc                   	int3
   1400045f3:	cc                   	int3
   1400045f4:	cc                   	int3
   1400045f5:	cc                   	int3
   1400045f6:	cc                   	int3
   1400045f7:	cc                   	int3
   1400045f8:	cc                   	int3
   1400045f9:	cc                   	int3
   1400045fa:	cc                   	int3
   1400045fb:	cc                   	int3
   1400045fc:	cc                   	int3
   1400045fd:	cc                   	int3
   1400045fe:	cc                   	int3
   1400045ff:	cc                   	int3
   140004600:	48 8d 05 19 fd ff ff 	lea    rax,[rip+0xfffffffffffffd19]        # 0x140004320
   140004607:	c7 01 06 00 00 00    	mov    DWORD PTR [rcx],0x6
   14000460d:	48 89 41 08          	mov    QWORD PTR [rcx+0x8],rax
   140004611:	48 8d 05 f8 00 00 00 	lea    rax,[rip+0xf8]        # 0x140004710
   140004618:	48 89 41 10          	mov    QWORD PTR [rcx+0x10],rax
   14000461c:	48 8d 05 cd 01 00 00 	lea    rax,[rip+0x1cd]        # 0x1400047f0
   140004623:	48 89 41 18          	mov    QWORD PTR [rcx+0x18],rax
   140004627:	48 8d 05 52 01 00 00 	lea    rax,[rip+0x152]        # 0x140004780
   14000462e:	48 89 41 28          	mov    QWORD PTR [rcx+0x28],rax
   140004632:	48 8d 05 17 00 00 00 	lea    rax,[rip+0x17]        # 0x140004650
   140004639:	48 89 41 30          	mov    QWORD PTR [rcx+0x30],rax
   14000463d:	c7 41 20 0c 00 00 00 	mov    DWORD PTR [rcx+0x20],0xc
   140004644:	c3                   	ret
   140004645:	cc                   	int3
   140004646:	cc                   	int3
   140004647:	cc                   	int3
   140004648:	cc                   	int3
   140004649:	cc                   	int3
   14000464a:	cc                   	int3
   14000464b:	cc                   	int3
   14000464c:	cc                   	int3
   14000464d:	cc                   	int3
   14000464e:	cc                   	int3
   14000464f:	cc                   	int3
   140004650:	4c 8b c9             	mov    r9,rcx
   140004653:	33 c0                	xor    eax,eax
   140004655:	48 89 42 08          	mov    QWORD PTR [rdx+0x8],rax
   140004659:	4c 8b d2             	mov    r10,rdx
   14000465c:	89 02                	mov    DWORD PTR [rdx],eax
   14000465e:	0f b6 01             	movzx  eax,BYTE PTR [rcx]
   140004661:	89 02                	mov    DWORD PTR [rdx],eax
   140004663:	44 0f b6 41 01       	movzx  r8d,BYTE PTR [rcx+0x1]
   140004668:	41 c1 e0 08          	shl    r8d,0x8
   14000466c:	44 03 c0             	add    r8d,eax
   14000466f:	44 89 02             	mov    DWORD PTR [rdx],r8d
   140004672:	0f b6 49 02          	movzx  ecx,BYTE PTR [rcx+0x2]
   140004676:	c1 e1 10             	shl    ecx,0x10
   140004679:	41 03 c8             	add    ecx,r8d
   14000467c:	89 0a                	mov    DWORD PTR [rdx],ecx
   14000467e:	41 0f b6 41 03       	movzx  eax,BYTE PTR [r9+0x3]
   140004683:	c1 e0 18             	shl    eax,0x18
   140004686:	03 c1                	add    eax,ecx
   140004688:	89 02                	mov    DWORD PTR [rdx],eax
   14000468a:	41 0f b6 41 04       	movzx  eax,BYTE PTR [r9+0x4]
   14000468f:	48 89 42 08          	mov    QWORD PTR [rdx+0x8],rax
   140004693:	41 0f b6 49 05       	movzx  ecx,BYTE PTR [r9+0x5]
   140004698:	48 c1 e1 08          	shl    rcx,0x8
   14000469c:	48 03 c8             	add    rcx,rax
   14000469f:	48 89 4a 08          	mov    QWORD PTR [rdx+0x8],rcx
   1400046a3:	41 0f b6 41 06       	movzx  eax,BYTE PTR [r9+0x6]
   1400046a8:	48 c1 e0 10          	shl    rax,0x10
   1400046ac:	48 03 c1             	add    rax,rcx
   1400046af:	48 89 42 08          	mov    QWORD PTR [rdx+0x8],rax
   1400046b3:	41 0f b6 49 07       	movzx  ecx,BYTE PTR [r9+0x7]
   1400046b8:	48 c1 e1 18          	shl    rcx,0x18
   1400046bc:	48 03 c8             	add    rcx,rax
   1400046bf:	48 89 4a 08          	mov    QWORD PTR [rdx+0x8],rcx
   1400046c3:	41 0f b6 41 08       	movzx  eax,BYTE PTR [r9+0x8]
   1400046c8:	48 c1 e0 20          	shl    rax,0x20
   1400046cc:	48 03 c1             	add    rax,rcx
   1400046cf:	48 89 42 08          	mov    QWORD PTR [rdx+0x8],rax
   1400046d3:	41 0f b6 49 09       	movzx  ecx,BYTE PTR [r9+0x9]
   1400046d8:	48 c1 e1 28          	shl    rcx,0x28
   1400046dc:	48 03 c8             	add    rcx,rax
   1400046df:	48 89 4a 08          	mov    QWORD PTR [rdx+0x8],rcx
   1400046e3:	41 0f b6 51 0a       	movzx  edx,BYTE PTR [r9+0xa]
   1400046e8:	48 c1 e2 30          	shl    rdx,0x30
   1400046ec:	48 03 d1             	add    rdx,rcx
   1400046ef:	49 89 52 08          	mov    QWORD PTR [r10+0x8],rdx
   1400046f3:	41 0f b6 41 0b       	movzx  eax,BYTE PTR [r9+0xb]
   1400046f8:	48 c1 e0 38          	shl    rax,0x38
   1400046fc:	48 03 c2             	add    rax,rdx
   1400046ff:	49 89 42 08          	mov    QWORD PTR [r10+0x8],rax
   140004703:	33 c0                	xor    eax,eax
   140004705:	c3                   	ret
   140004706:	cc                   	int3
   140004707:	cc                   	int3
   140004708:	cc                   	int3
   140004709:	cc                   	int3
   14000470a:	cc                   	int3
   14000470b:	cc                   	int3
   14000470c:	cc                   	int3
   14000470d:	cc                   	int3
   14000470e:	cc                   	int3
   14000470f:	cc                   	int3
   140004710:	48 89 5c 24 08       	mov    QWORD PTR [rsp+0x8],rbx
   140004715:	57                   	push   rdi
   140004716:	48 83 ec 20          	sub    rsp,0x20
   14000471a:	48 8b da             	mov    rbx,rdx
   14000471d:	48 8b f9             	mov    rdi,rcx
   140004720:	48 8b d1             	mov    rdx,rcx
   140004723:	41 b8 04 00 00 00    	mov    r8d,0x4
   140004729:	48 8d 0d f8 19 00 00 	lea    rcx,[rip+0x19f8]        # 0x140006128
   140004730:	ff 15 42 1a 00 00    	call   QWORD PTR [rip+0x1a42]        # 0x140006178
   140004736:	85 c0                	test   eax,eax
   140004738:	74 10                	je     0x14000474a
   14000473a:	b8 01 00 00 00       	mov    eax,0x1
   14000473f:	48 8b 5c 24 30       	mov    rbx,QWORD PTR [rsp+0x30]
   140004744:	48 83 c4 20          	add    rsp,0x20
   140004748:	5f                   	pop    rdi
   140004749:	c3                   	ret
   14000474a:	c7 03 02 00 03 01    	mov    DWORD PTR [rbx],0x1030002
   140004750:	ba 01 00 00 00       	mov    edx,0x1
   140004755:	48 c7 43 08 00 00 00 	mov    QWORD PTR [rbx+0x8],0x0
   14000475c:	00 
   14000475d:	0f b6 4f 05          	movzx  ecx,BYTE PTR [rdi+0x5]
   140004761:	83 e1 1f             	and    ecx,0x1f
   140004764:	d3 e2                	shl    edx,cl
   140004766:	89 53 10             	mov    DWORD PTR [rbx+0x10],edx
   140004769:	33 c0                	xor    eax,eax
   14000476b:	48 8b 5c 24 30       	mov    rbx,QWORD PTR [rsp+0x30]
   140004770:	48 83 c4 20          	add    rsp,0x20
   140004774:	5f                   	pop    rdi
   140004775:	c3                   	ret
   140004776:	cc                   	int3
   140004777:	cc                   	int3
   140004778:	cc                   	int3
   140004779:	cc                   	int3
   14000477a:	cc                   	int3
   14000477b:	cc                   	int3
   14000477c:	cc                   	int3
   14000477d:	cc                   	int3
   14000477e:	cc                   	int3
   14000477f:	cc                   	int3
   140004780:	0f b6 01             	movzx  eax,BYTE PTR [rcx]
   140004783:	88 02                	mov    BYTE PTR [rdx],al
   140004785:	8b 01                	mov    eax,DWORD PTR [rcx]
   140004787:	c1 e8 08             	shr    eax,0x8
   14000478a:	88 42 01             	mov    BYTE PTR [rdx+0x1],al
   14000478d:	0f b6 41 02          	movzx  eax,BYTE PTR [rcx+0x2]
   140004791:	88 42 02             	mov    BYTE PTR [rdx+0x2],al
   140004794:	0f b6 41 03          	movzx  eax,BYTE PTR [rcx+0x3]
   140004798:	88 42 03             	mov    BYTE PTR [rdx+0x3],al
   14000479b:	0f b6 41 08          	movzx  eax,BYTE PTR [rcx+0x8]
   14000479f:	88 42 04             	mov    BYTE PTR [rdx+0x4],al
   1400047a2:	8b 41 08             	mov    eax,DWORD PTR [rcx+0x8]
   1400047a5:	48 c1 e8 08          	shr    rax,0x8
   1400047a9:	88 42 05             	mov    BYTE PTR [rdx+0x5],al
   1400047ac:	8b 41 08             	mov    eax,DWORD PTR [rcx+0x8]
   1400047af:	48 c1 e8 10          	shr    rax,0x10
   1400047b3:	88 42 06             	mov    BYTE PTR [rdx+0x6],al
   1400047b6:	8b 41 08             	mov    eax,DWORD PTR [rcx+0x8]
   1400047b9:	48 c1 e8 18          	shr    rax,0x18
   1400047bd:	88 42 07             	mov    BYTE PTR [rdx+0x7],al
   1400047c0:	48 8b 41 08          	mov    rax,QWORD PTR [rcx+0x8]
   1400047c4:	48 c1 e8 20          	shr    rax,0x20
   1400047c8:	88 42 08             	mov    BYTE PTR [rdx+0x8],al
   1400047cb:	48 8b 41 08          	mov    rax,QWORD PTR [rcx+0x8]
   1400047cf:	48 c1 e8 28          	shr    rax,0x28
   1400047d3:	88 42 09             	mov    BYTE PTR [rdx+0x9],al
   1400047d6:	0f b6 41 0e          	movzx  eax,BYTE PTR [rcx+0xe]
   1400047da:	88 42 0a             	mov    BYTE PTR [rdx+0xa],al
   1400047dd:	0f b6 41 0f          	movzx  eax,BYTE PTR [rcx+0xf]
   1400047e1:	88 42 0b             	mov    BYTE PTR [rdx+0xb],al
   1400047e4:	33 c0                	xor    eax,eax
   1400047e6:	c3                   	ret
   1400047e7:	cc                   	int3
   1400047e8:	cc                   	int3
   1400047e9:	cc                   	int3
   1400047ea:	cc                   	int3
   1400047eb:	cc                   	int3
   1400047ec:	cc                   	int3
   1400047ed:	cc                   	int3
   1400047ee:	cc                   	int3
   1400047ef:	cc                   	int3
   1400047f0:	c7 01 4c 5a 49 50    	mov    DWORD PTR [rcx],0x50495a4c
   1400047f6:	4c 8b c9             	mov    r9,rcx
   1400047f9:	c6 41 04 00          	mov    BYTE PTR [rcx+0x4],0x0
   1400047fd:	33 c9                	xor    ecx,ecx
   1400047ff:	44 8b 42 10          	mov    r8d,DWORD PTR [rdx+0x10]
   140004803:	45 85 c0             	test   r8d,r8d
   140004806:	74 13                	je     0x14000481b
   140004808:	0f 1f 84 00 00 00 00 	nop    DWORD PTR [rax+rax*1+0x0]
   14000480f:	00 
   140004810:	ff c1                	inc    ecx
   140004812:	41 8b c0             	mov    eax,r8d
   140004815:	d3 e8                	shr    eax,cl
   140004817:	85 c0                	test   eax,eax
   140004819:	75 f5                	jne    0x140004810
   14000481b:	fe c9                	dec    cl
   14000481d:	33 c0                	xor    eax,eax
   14000481f:	80 e1 1f             	and    cl,0x1f
   140004822:	41 88 49 05          	mov    BYTE PTR [r9+0x5],cl
   140004826:	c3                   	ret
   140004827:	cc                   	int3
   140004828:	cc                   	int3
   140004829:	cc                   	int3
   14000482a:	cc                   	int3
   14000482b:	cc                   	int3
   14000482c:	cc                   	int3
   14000482d:	cc                   	int3
   14000482e:	cc                   	int3
   14000482f:	cc                   	int3
   140004830:	48 89 54 24 10       	mov    QWORD PTR [rsp+0x10],rdx
   140004835:	89 4c 24 08          	mov    DWORD PTR [rsp+0x8],ecx
   140004839:	48 83 ec 28          	sub    rsp,0x28
   14000483d:	83 7c 24 30 00       	cmp    DWORD PTR [rsp+0x30],0x0
   140004842:	74 08                	je     0x14000484c
   140004844:	48 83 7c 24 38 00    	cmp    QWORD PTR [rsp+0x38],0x0
   14000484a:	75 04                	jne    0x140004850
   14000484c:	33 c0                	xor    eax,eax
   14000484e:	eb 6f                	jmp    0x1400048bf
   140004850:	8b 4c 24 30          	mov    ecx,DWORD PTR [rsp+0x30]
   140004854:	e8 f7 07 00 00       	call   0x140005050
   140004859:	48 8b 44 24 38       	mov    rax,QWORD PTR [rsp+0x38]
   14000485e:	8b 00                	mov    eax,DWORD PTR [rax]
   140004860:	89 05 ba 27 00 00    	mov    DWORD PTR [rip+0x27ba],eax        # 0x140007020
   140004866:	48 8b 44 24 38       	mov    rax,QWORD PTR [rsp+0x38]
   14000486b:	8b 40 04             	mov    eax,DWORD PTR [rax+0x4]
   14000486e:	89 05 b0 27 00 00    	mov    DWORD PTR [rip+0x27b0],eax        # 0x140007024
   140004874:	48 8b 44 24 38       	mov    rax,QWORD PTR [rsp+0x38]
   140004879:	8b 40 08             	mov    eax,DWORD PTR [rax+0x8]
   14000487c:	89 05 a6 27 00 00    	mov    DWORD PTR [rip+0x27a6],eax        # 0x140007028
   140004882:	48 8b 44 24 38       	mov    rax,QWORD PTR [rsp+0x38]
   140004887:	8b 40 0c             	mov    eax,DWORD PTR [rax+0xc]
   14000488a:	89 05 9c 27 00 00    	mov    DWORD PTR [rip+0x279c],eax        # 0x14000702c
   140004890:	48 8b 44 24 38       	mov    rax,QWORD PTR [rsp+0x38]
   140004895:	8b 40 10             	mov    eax,DWORD PTR [rax+0x10]
   140004898:	89 05 92 27 00 00    	mov    DWORD PTR [rip+0x2792],eax        # 0x140007030
   14000489e:	48 8b 44 24 38       	mov    rax,QWORD PTR [rsp+0x38]
   1400048a3:	8b 40 14             	mov    eax,DWORD PTR [rax+0x14]
   1400048a6:	89 05 88 27 00 00    	mov    DWORD PTR [rip+0x2788],eax        # 0x140007034
   1400048ac:	48 8b 44 24 38       	mov    rax,QWORD PTR [rsp+0x38]
   1400048b1:	8b 40 18             	mov    eax,DWORD PTR [rax+0x18]
   1400048b4:	89 05 7e 27 00 00    	mov    DWORD PTR [rip+0x277e],eax        # 0x140007038
   1400048ba:	b8 01 00 00 00       	mov    eax,0x1
   1400048bf:	48 83 c4 28          	add    rsp,0x28
   1400048c3:	c3                   	ret
   1400048c4:	cc                   	int3
   1400048c5:	cc                   	int3
   1400048c6:	cc                   	int3
   1400048c7:	cc                   	int3
   1400048c8:	cc                   	int3
   1400048c9:	cc                   	int3
   1400048ca:	cc                   	int3
   1400048cb:	cc                   	int3
   1400048cc:	cc                   	int3
   1400048cd:	cc                   	int3
   1400048ce:	cc                   	int3
   1400048cf:	cc                   	int3
   1400048d0:	44 89 4c 24 20       	mov    DWORD PTR [rsp+0x20],r9d
   1400048d5:	4c 89 44 24 18       	mov    QWORD PTR [rsp+0x18],r8
   1400048da:	48 89 54 24 10       	mov    QWORD PTR [rsp+0x10],rdx
   1400048df:	48 89 4c 24 08       	mov    QWORD PTR [rsp+0x8],rcx
   1400048e4:	48 83 ec 68          	sub    rsp,0x68
   1400048e8:	48 83 bc 24 80 00 00 	cmp    QWORD PTR [rsp+0x80],0x0
   1400048ef:	00 00 
   1400048f1:	75 07                	jne    0x1400048fa
   1400048f3:	33 c0                	xor    eax,eax
   1400048f5:	e9 f8 00 00 00       	jmp    0x1400049f2
   1400048fa:	8b 0d 20 27 00 00    	mov    ecx,DWORD PTR [rip+0x2720]        # 0x140007020
   140004900:	e8 5b 07 00 00       	call   0x140005060
   140004905:	85 c0                	test   eax,eax
   140004907:	75 07                	jne    0x140004910
   140004909:	33 c0                	xor    eax,eax
   14000490b:	e9 e2 00 00 00       	jmp    0x1400049f2
   140004910:	48 c7 44 24 48 ff ff 	mov    QWORD PTR [rsp+0x48],0xffffffffffffffff
   140004917:	ff ff 
   140004919:	48 c7 44 24 40 00 00 	mov    QWORD PTR [rsp+0x40],0x0
   140004920:	00 00 
   140004922:	48 8b 84 24 80 00 00 	mov    rax,QWORD PTR [rsp+0x80]
   140004929:	00 
   14000492a:	48 89 44 24 50       	mov    QWORD PTR [rsp+0x50],rax
   14000492f:	c7 44 24 34 00 30 00 	mov    DWORD PTR [rsp+0x34],0x3000
   140004936:	00 
   140004937:	c7 44 24 30 04 00 00 	mov    DWORD PTR [rsp+0x30],0x4
   14000493e:	00 
   14000493f:	48 c7 44 24 58 00 00 	mov    QWORD PTR [rsp+0x58],0x0
   140004946:	00 00 
   140004948:	48 83 7c 24 70 00    	cmp    QWORD PTR [rsp+0x70],0x0
   14000494e:	74 0a                	je     0x14000495a
   140004950:	48 8b 44 24 70       	mov    rax,QWORD PTR [rsp+0x70]
   140004955:	48 89 44 24 48       	mov    QWORD PTR [rsp+0x48],rax
   14000495a:	48 83 7c 24 78 00    	cmp    QWORD PTR [rsp+0x78],0x0
   140004960:	74 0a                	je     0x14000496c
   140004962:	48 8b 44 24 78       	mov    rax,QWORD PTR [rsp+0x78]
   140004967:	48 89 44 24 40       	mov    QWORD PTR [rsp+0x40],rax
   14000496c:	8b 84 24 88 00 00 00 	mov    eax,DWORD PTR [rsp+0x88]
   140004973:	48 85 c0             	test   rax,rax
   140004976:	74 0b                	je     0x140004983
   140004978:	8b 84 24 88 00 00 00 	mov    eax,DWORD PTR [rsp+0x88]
   14000497f:	89 44 24 34          	mov    DWORD PTR [rsp+0x34],eax
   140004983:	8b 84 24 90 00 00 00 	mov    eax,DWORD PTR [rsp+0x90]
   14000498a:	48 85 c0             	test   rax,rax
   14000498d:	74 0b                	je     0x14000499a
   14000498f:	8b 84 24 90 00 00 00 	mov    eax,DWORD PTR [rsp+0x90]
   140004996:	89 44 24 30          	mov    DWORD PTR [rsp+0x30],eax
   14000499a:	e8 21 0d 00 00       	call   0x1400056c0
   14000499f:	0f b7 c8             	movzx  ecx,ax
   1400049a2:	e8 29 0d 00 00       	call   0x1400056d0
   1400049a7:	8b 44 24 30          	mov    eax,DWORD PTR [rsp+0x30]
   1400049ab:	89 44 24 28          	mov    DWORD PTR [rsp+0x28],eax
   1400049af:	8b 44 24 34          	mov    eax,DWORD PTR [rsp+0x34]
   1400049b3:	89 44 24 20          	mov    DWORD PTR [rsp+0x20],eax
   1400049b7:	4c 8d 4c 24 50       	lea    r9,[rsp+0x50]
   1400049bc:	4c 8b 44 24 58       	mov    r8,QWORD PTR [rsp+0x58]
   1400049c1:	48 8d 54 24 40       	lea    rdx,[rsp+0x40]
   1400049c6:	48 8b 4c 24 48       	mov    rcx,QWORD PTR [rsp+0x48]
   1400049cb:	e8 11 0d 00 00       	call   0x1400056e1
   1400049d0:	89 44 24 38          	mov    DWORD PTR [rsp+0x38],eax
   1400049d4:	48 83 bc 24 98 00 00 	cmp    QWORD PTR [rsp+0x98],0x0
   1400049db:	00 00 
   1400049dd:	74 0e                	je     0x1400049ed
   1400049df:	48 8b 84 24 98 00 00 	mov    rax,QWORD PTR [rsp+0x98]
   1400049e6:	00 
   1400049e7:	8b 4c 24 38          	mov    ecx,DWORD PTR [rsp+0x38]
   1400049eb:	89 08                	mov    DWORD PTR [rax],ecx
   1400049ed:	48 8b 44 24 40       	mov    rax,QWORD PTR [rsp+0x40]
   1400049f2:	48 83 c4 68          	add    rsp,0x68
   1400049f6:	c3                   	ret
   1400049f7:	cc                   	int3
   1400049f8:	cc                   	int3
   1400049f9:	cc                   	int3
   1400049fa:	cc                   	int3
   1400049fb:	cc                   	int3
   1400049fc:	cc                   	int3
   1400049fd:	cc                   	int3
   1400049fe:	cc                   	int3
   1400049ff:	cc                   	int3
   140004a00:	48 89 54 24 10       	mov    QWORD PTR [rsp+0x10],rdx
   140004a05:	48 89 4c 24 08       	mov    QWORD PTR [rsp+0x8],rcx
   140004a0a:	48 83 ec 38          	sub    rsp,0x38
   140004a0e:	48 8b 44 24 48       	mov    rax,QWORD PTR [rsp+0x48]
   140004a13:	48 89 44 24 28       	mov    QWORD PTR [rsp+0x28],rax
   140004a18:	c7 44 24 20 00 00 00 	mov    DWORD PTR [rsp+0x20],0x0
   140004a1f:	00 
   140004a20:	45 33 c9             	xor    r9d,r9d
   140004a23:	4c 8b 44 24 40       	mov    r8,QWORD PTR [rsp+0x40]
   140004a28:	33 d2                	xor    edx,edx
   140004a2a:	33 c9                	xor    ecx,ecx
   140004a2c:	e8 9f fe ff ff       	call   0x1400048d0
   140004a31:	48 83 c4 38          	add    rsp,0x38
   140004a35:	c3                   	ret
   140004a36:	cc                   	int3
   140004a37:	cc                   	int3
   140004a38:	cc                   	int3
   140004a39:	cc                   	int3
   140004a3a:	cc                   	int3
   140004a3b:	cc                   	int3
   140004a3c:	cc                   	int3
   140004a3d:	cc                   	int3
   140004a3e:	cc                   	int3
   140004a3f:	cc                   	int3
   140004a40:	44 89 4c 24 20       	mov    DWORD PTR [rsp+0x20],r9d
   140004a45:	4c 89 44 24 18       	mov    QWORD PTR [rsp+0x18],r8
   140004a4a:	48 89 54 24 10       	mov    QWORD PTR [rsp+0x10],rdx
   140004a4f:	48 89 4c 24 08       	mov    QWORD PTR [rsp+0x8],rcx
   140004a54:	48 81 ec a8 00 00 00 	sub    rsp,0xa8
   140004a5b:	48 83 bc 24 b0 00 00 	cmp    QWORD PTR [rsp+0xb0],0x0
   140004a62:	00 00 
   140004a64:	75 07                	jne    0x140004a6d
   140004a66:	33 c0                	xor    eax,eax
   140004a68:	e9 57 01 00 00       	jmp    0x140004bc4
   140004a6d:	8b 0d bd 25 00 00    	mov    ecx,DWORD PTR [rip+0x25bd]        # 0x140007030
   140004a73:	e8 e8 05 00 00       	call   0x140005060
   140004a78:	85 c0                	test   eax,eax
   140004a7a:	75 07                	jne    0x140004a83
   140004a7c:	33 c0                	xor    eax,eax
   140004a7e:	e9 41 01 00 00       	jmp    0x140004bc4
   140004a83:	48 8b 84 24 b0 00 00 	mov    rax,QWORD PTR [rsp+0xb0]
   140004a8a:	00 
   140004a8b:	48 89 84 24 90 00 00 	mov    QWORD PTR [rsp+0x90],rax
   140004a92:	00 
   140004a93:	48 c7 44 24 68 ff ff 	mov    QWORD PTR [rsp+0x68],0xffffffffffffffff
   140004a9a:	ff ff 
   140004a9c:	48 c7 44 24 60 00 00 	mov    QWORD PTR [rsp+0x60],0x0
   140004aa3:	00 00 
   140004aa5:	c7 44 24 54 00 00 00 	mov    DWORD PTR [rsp+0x54],0x0
   140004aac:	00 
   140004aad:	c7 44 24 50 04 00 00 	mov    DWORD PTR [rsp+0x50],0x4
   140004ab4:	00 
   140004ab5:	48 c7 84 24 88 00 00 	mov    QWORD PTR [rsp+0x88],0x0
   140004abc:	00 00 00 00 00 
   140004ac1:	48 c7 84 24 80 00 00 	mov    QWORD PTR [rsp+0x80],0x0
   140004ac8:	00 00 00 00 00 
   140004acd:	48 c7 44 24 78 00 00 	mov    QWORD PTR [rsp+0x78],0x0
   140004ad4:	00 00 
   140004ad6:	48 c7 44 24 70 00 00 	mov    QWORD PTR [rsp+0x70],0x0
   140004add:	00 00 
   140004adf:	48 83 bc 24 b8 00 00 	cmp    QWORD PTR [rsp+0xb8],0x0
   140004ae6:	00 00 
   140004ae8:	74 0d                	je     0x140004af7
   140004aea:	48 8b 84 24 b8 00 00 	mov    rax,QWORD PTR [rsp+0xb8]
   140004af1:	00 
   140004af2:	48 89 44 24 68       	mov    QWORD PTR [rsp+0x68],rax
   140004af7:	48 83 bc 24 c0 00 00 	cmp    QWORD PTR [rsp+0xc0],0x0
   140004afe:	00 00 
   140004b00:	74 0d                	je     0x140004b0f
   140004b02:	48 8b 84 24 c0 00 00 	mov    rax,QWORD PTR [rsp+0xc0]
   140004b09:	00 
   140004b0a:	48 89 44 24 60       	mov    QWORD PTR [rsp+0x60],rax
   140004b0f:	8b 84 24 c8 00 00 00 	mov    eax,DWORD PTR [rsp+0xc8]
   140004b16:	48 85 c0             	test   rax,rax
   140004b19:	74 0b                	je     0x140004b26
   140004b1b:	8b 84 24 c8 00 00 00 	mov    eax,DWORD PTR [rsp+0xc8]
   140004b22:	89 44 24 54          	mov    DWORD PTR [rsp+0x54],eax
   140004b26:	8b 84 24 d0 00 00 00 	mov    eax,DWORD PTR [rsp+0xd0]
   140004b2d:	48 85 c0             	test   rax,rax
   140004b30:	74 0b                	je     0x140004b3d
   140004b32:	8b 84 24 d0 00 00 00 	mov    eax,DWORD PTR [rsp+0xd0]
   140004b39:	89 44 24 50          	mov    DWORD PTR [rsp+0x50],eax
   140004b3d:	e8 7e 0b 00 00       	call   0x1400056c0
   140004b42:	0f b7 c8             	movzx  ecx,ax
   140004b45:	e8 86 0b 00 00       	call   0x1400056d0
   140004b4a:	8b 44 24 50          	mov    eax,DWORD PTR [rsp+0x50]
   140004b4e:	89 44 24 48          	mov    DWORD PTR [rsp+0x48],eax
   140004b52:	8b 44 24 54          	mov    eax,DWORD PTR [rsp+0x54]
   140004b56:	89 44 24 40          	mov    DWORD PTR [rsp+0x40],eax
   140004b5a:	c7 44 24 38 01 00 00 	mov    DWORD PTR [rsp+0x38],0x1
   140004b61:	00 
   140004b62:	48 8d 44 24 70       	lea    rax,[rsp+0x70]
   140004b67:	48 89 44 24 30       	mov    QWORD PTR [rsp+0x30],rax
   140004b6c:	48 8b 44 24 78       	mov    rax,QWORD PTR [rsp+0x78]
   140004b71:	48 89 44 24 28       	mov    QWORD PTR [rsp+0x28],rax
   140004b76:	48 8b 84 24 80 00 00 	mov    rax,QWORD PTR [rsp+0x80]
   140004b7d:	00 
   140004b7e:	48 89 44 24 20       	mov    QWORD PTR [rsp+0x20],rax
   140004b83:	4c 8b 8c 24 88 00 00 	mov    r9,QWORD PTR [rsp+0x88]
   140004b8a:	00 
   140004b8b:	4c 8d 44 24 60       	lea    r8,[rsp+0x60]
   140004b90:	48 8b 54 24 68       	mov    rdx,QWORD PTR [rsp+0x68]
   140004b95:	48 8b 8c 24 90 00 00 	mov    rcx,QWORD PTR [rsp+0x90]
   140004b9c:	00 
   140004b9d:	e8 3f 0b 00 00       	call   0x1400056e1
   140004ba2:	89 44 24 58          	mov    DWORD PTR [rsp+0x58],eax
   140004ba6:	48 83 bc 24 d8 00 00 	cmp    QWORD PTR [rsp+0xd8],0x0
   140004bad:	00 00 
   140004baf:	74 0e                	je     0x140004bbf
   140004bb1:	48 8b 84 24 d8 00 00 	mov    rax,QWORD PTR [rsp+0xd8]
   140004bb8:	00 
   140004bb9:	8b 4c 24 58          	mov    ecx,DWORD PTR [rsp+0x58]
   140004bbd:	89 08                	mov    DWORD PTR [rax],ecx
   140004bbf:	48 8b 44 24 60       	mov    rax,QWORD PTR [rsp+0x60]
   140004bc4:	48 81 c4 a8 00 00 00 	add    rsp,0xa8
   140004bcb:	c3                   	ret
   140004bcc:	cc                   	int3
   140004bcd:	cc                   	int3
   140004bce:	cc                   	int3
   140004bcf:	cc                   	int3
   140004bd0:	4c 89 44 24 18       	mov    QWORD PTR [rsp+0x18],r8
   140004bd5:	48 89 54 24 10       	mov    QWORD PTR [rsp+0x10],rdx
   140004bda:	89 4c 24 08          	mov    DWORD PTR [rsp+0x8],ecx
   140004bde:	48 83 ec 38          	sub    rsp,0x38
   140004be2:	48 83 7c 24 48 00    	cmp    QWORD PTR [rsp+0x48],0x0
   140004be8:	75 09                	jne    0x140004bf3
   140004bea:	48 c7 c0 ff ff ff ff 	mov    rax,0xffffffffffffffff
   140004bf1:	eb 76                	jmp    0x140004c69
   140004bf3:	8b 0d 33 24 00 00    	mov    ecx,DWORD PTR [rip+0x2433]        # 0x14000702c
   140004bf9:	e8 62 04 00 00       	call   0x140005060
   140004bfe:	85 c0                	test   eax,eax
   140004c00:	75 09                	jne    0x140004c0b
   140004c02:	48 c7 c0 ff ff ff ff 	mov    rax,0xffffffffffffffff
   140004c09:	eb 5e                	jmp    0x140004c69
   140004c0b:	c7 44 24 20 1f 00 0f 	mov    DWORD PTR [rsp+0x20],0xf001f
   140004c12:	00 
   140004c13:	48 c7 44 24 28 ff ff 	mov    QWORD PTR [rsp+0x28],0xffffffffffffffff
   140004c1a:	ff ff 
   140004c1c:	8b 44 24 40          	mov    eax,DWORD PTR [rsp+0x40]
   140004c20:	48 85 c0             	test   rax,rax
   140004c23:	74 08                	je     0x140004c2d
   140004c25:	8b 44 24 40          	mov    eax,DWORD PTR [rsp+0x40]
   140004c29:	89 44 24 20          	mov    DWORD PTR [rsp+0x20],eax
   140004c2d:	e8 8e 0a 00 00       	call   0x1400056c0
   140004c32:	0f b7 c8             	movzx  ecx,ax
   140004c35:	e8 96 0a 00 00       	call   0x1400056d0
   140004c3a:	4c 8b 44 24 48       	mov    r8,QWORD PTR [rsp+0x48]
   140004c3f:	8b 54 24 20          	mov    edx,DWORD PTR [rsp+0x20]
   140004c43:	48 8d 4c 24 28       	lea    rcx,[rsp+0x28]
   140004c48:	e8 94 0a 00 00       	call   0x1400056e1
   140004c4d:	89 44 24 24          	mov    DWORD PTR [rsp+0x24],eax
   140004c51:	48 83 7c 24 50 00    	cmp    QWORD PTR [rsp+0x50],0x0
   140004c57:	74 0b                	je     0x140004c64
   140004c59:	48 8b 44 24 50       	mov    rax,QWORD PTR [rsp+0x50]
   140004c5e:	8b 4c 24 24          	mov    ecx,DWORD PTR [rsp+0x24]
   140004c62:	89 08                	mov    DWORD PTR [rax],ecx
   140004c64:	48 8b 44 24 28       	mov    rax,QWORD PTR [rsp+0x28]
   140004c69:	48 83 c4 38          	add    rsp,0x38
   140004c6d:	c3                   	ret
   140004c6e:	cc                   	int3
   140004c6f:	cc                   	int3
   140004c70:	44 89 4c 24 20       	mov    DWORD PTR [rsp+0x20],r9d
   140004c75:	4c 89 44 24 18       	mov    QWORD PTR [rsp+0x18],r8
   140004c7a:	48 89 54 24 10       	mov    QWORD PTR [rsp+0x10],rdx
   140004c7f:	48 89 4c 24 08       	mov    QWORD PTR [rsp+0x8],rcx
   140004c84:	48 83 ec 68          	sub    rsp,0x68
   140004c88:	48 83 7c 24 78 00    	cmp    QWORD PTR [rsp+0x78],0x0
   140004c8e:	74 17                	je     0x140004ca7
   140004c90:	48 83 bc 24 80 00 00 	cmp    QWORD PTR [rsp+0x80],0x0
   140004c97:	00 00 
   140004c99:	74 0c                	je     0x140004ca7
   140004c9b:	8b 84 24 88 00 00 00 	mov    eax,DWORD PTR [rsp+0x88]
   140004ca2:	48 85 c0             	test   rax,rax
   140004ca5:	75 07                	jne    0x140004cae
   140004ca7:	33 c0                	xor    eax,eax
   140004ca9:	e9 ac 00 00 00       	jmp    0x140004d5a
   140004cae:	8b 0d 70 23 00 00    	mov    ecx,DWORD PTR [rip+0x2370]        # 0x140007024
   140004cb4:	e8 a7 03 00 00       	call   0x140005060
   140004cb9:	85 c0                	test   eax,eax
   140004cbb:	75 07                	jne    0x140004cc4
   140004cbd:	33 c0                	xor    eax,eax
   140004cbf:	e9 96 00 00 00       	jmp    0x140004d5a
   140004cc4:	48 c7 44 24 40 ff ff 	mov    QWORD PTR [rsp+0x40],0xffffffffffffffff
   140004ccb:	ff ff 
   140004ccd:	48 8b 44 24 78       	mov    rax,QWORD PTR [rsp+0x78]
   140004cd2:	48 89 44 24 50       	mov    QWORD PTR [rsp+0x50],rax
   140004cd7:	48 8b 84 24 80 00 00 	mov    rax,QWORD PTR [rsp+0x80]
   140004cde:	00 
   140004cdf:	48 89 44 24 48       	mov    QWORD PTR [rsp+0x48],rax
   140004ce4:	8b 84 24 88 00 00 00 	mov    eax,DWORD PTR [rsp+0x88]
   140004ceb:	89 44 24 34          	mov    DWORD PTR [rsp+0x34],eax
   140004cef:	c7 44 24 30 00 00 00 	mov    DWORD PTR [rsp+0x30],0x0
   140004cf6:	00 
   140004cf7:	48 83 7c 24 70 00    	cmp    QWORD PTR [rsp+0x70],0x0
   140004cfd:	74 0a                	je     0x140004d09
   140004cff:	48 8b 44 24 70       	mov    rax,QWORD PTR [rsp+0x70]
   140004d04:	48 89 44 24 40       	mov    QWORD PTR [rsp+0x40],rax
   140004d09:	e8 b2 09 00 00       	call   0x1400056c0
   140004d0e:	0f b7 c8             	movzx  ecx,ax
   140004d11:	e8 ba 09 00 00       	call   0x1400056d0
   140004d16:	48 8d 44 24 30       	lea    rax,[rsp+0x30]
   140004d1b:	48 89 44 24 20       	mov    QWORD PTR [rsp+0x20],rax
   140004d20:	44 8b 4c 24 34       	mov    r9d,DWORD PTR [rsp+0x34]
   140004d25:	4c 8d 44 24 48       	lea    r8,[rsp+0x48]
   140004d2a:	48 8d 54 24 50       	lea    rdx,[rsp+0x50]
   140004d2f:	48 8b 4c 24 40       	mov    rcx,QWORD PTR [rsp+0x40]
   140004d34:	e8 a8 09 00 00       	call   0x1400056e1
   140004d39:	89 44 24 38          	mov    DWORD PTR [rsp+0x38],eax
   140004d3d:	48 83 bc 24 90 00 00 	cmp    QWORD PTR [rsp+0x90],0x0
   140004d44:	00 00 
   140004d46:	74 0e                	je     0x140004d56
   140004d48:	48 8b 84 24 90 00 00 	mov    rax,QWORD PTR [rsp+0x90]
   140004d4f:	00 
   140004d50:	8b 4c 24 38          	mov    ecx,DWORD PTR [rsp+0x38]
   140004d54:	89 08                	mov    DWORD PTR [rax],ecx
   140004d56:	8b 44 24 30          	mov    eax,DWORD PTR [rsp+0x30]
   140004d5a:	48 83 c4 68          	add    rsp,0x68
   140004d5e:	c3                   	ret
   140004d5f:	cc                   	int3
   140004d60:	4c 89 44 24 18       	mov    QWORD PTR [rsp+0x18],r8
   140004d65:	48 89 54 24 10       	mov    QWORD PTR [rsp+0x10],rdx
   140004d6a:	48 89 4c 24 08       	mov    QWORD PTR [rsp+0x8],rcx
   140004d6f:	48 83 ec 48          	sub    rsp,0x48
   140004d73:	48 83 7c 24 58 00    	cmp    QWORD PTR [rsp+0x58],0x0
   140004d79:	75 02                	jne    0x140004d7d
   140004d7b:	eb 69                	jmp    0x140004de6
   140004d7d:	8b 0d b1 22 00 00    	mov    ecx,DWORD PTR [rip+0x22b1]        # 0x140007034
   140004d83:	e8 d8 02 00 00       	call   0x140005060
   140004d88:	85 c0                	test   eax,eax
   140004d8a:	75 02                	jne    0x140004d8e
   140004d8c:	eb 58                	jmp    0x140004de6
   140004d8e:	48 c7 44 24 28 ff ff 	mov    QWORD PTR [rsp+0x28],0xffffffffffffffff
   140004d95:	ff ff 
   140004d97:	48 8b 44 24 58       	mov    rax,QWORD PTR [rsp+0x58]
   140004d9c:	48 89 44 24 30       	mov    QWORD PTR [rsp+0x30],rax
   140004da1:	48 83 7c 24 50 00    	cmp    QWORD PTR [rsp+0x50],0x0
   140004da7:	74 0a                	je     0x140004db3
   140004da9:	48 8b 44 24 50       	mov    rax,QWORD PTR [rsp+0x50]
   140004dae:	48 89 44 24 28       	mov    QWORD PTR [rsp+0x28],rax
   140004db3:	e8 08 09 00 00       	call   0x1400056c0
   140004db8:	0f b7 c8             	movzx  ecx,ax
   140004dbb:	e8 10 09 00 00       	call   0x1400056d0
   140004dc0:	48 8b 54 24 30       	mov    rdx,QWORD PTR [rsp+0x30]
   140004dc5:	48 8b 4c 24 28       	mov    rcx,QWORD PTR [rsp+0x28]
   140004dca:	e8 12 09 00 00       	call   0x1400056e1
   140004dcf:	89 44 24 20          	mov    DWORD PTR [rsp+0x20],eax
   140004dd3:	48 83 7c 24 60 00    	cmp    QWORD PTR [rsp+0x60],0x0
   140004dd9:	74 0b                	je     0x140004de6
   140004ddb:	48 8b 44 24 60       	mov    rax,QWORD PTR [rsp+0x60]
   140004de0:	8b 4c 24 20          	mov    ecx,DWORD PTR [rsp+0x20]
   140004de4:	89 08                	mov    DWORD PTR [rax],ecx
   140004de6:	48 83 c4 48          	add    rsp,0x48
   140004dea:	c3                   	ret
   140004deb:	cc                   	int3
   140004dec:	cc                   	int3
   140004ded:	cc                   	int3
   140004dee:	cc                   	int3
   140004def:	cc                   	int3
   140004df0:	48 89 4c 24 08       	mov    QWORD PTR [rsp+0x8],rcx
   140004df5:	48 83 ec 48          	sub    rsp,0x48
   140004df9:	c7 44 24 24 00 00 00 	mov    DWORD PTR [rsp+0x24],0x0
   140004e00:	00 
   140004e01:	c7 44 24 20 00 00 00 	mov    DWORD PTR [rsp+0x20],0x0
   140004e08:	00 
   140004e09:	eb 0a                	jmp    0x140004e15
   140004e0b:	8b 44 24 20          	mov    eax,DWORD PTR [rsp+0x20]
   140004e0f:	ff c0                	inc    eax
   140004e11:	89 44 24 20          	mov    DWORD PTR [rsp+0x20],eax
   140004e15:	48 63 44 24 20       	movsxd rax,DWORD PTR [rsp+0x20]
   140004e1a:	48 89 44 24 30       	mov    QWORD PTR [rsp+0x30],rax
   140004e1f:	48 8b 4c 24 50       	mov    rcx,QWORD PTR [rsp+0x50]
   140004e24:	e8 57 08 00 00       	call   0x140005680
   140004e29:	48 8b 4c 24 30       	mov    rcx,QWORD PTR [rsp+0x30]
   140004e2e:	48 3b c8             	cmp    rcx,rax
   140004e31:	73 2f                	jae    0x140004e62
   140004e33:	48 63 44 24 20       	movsxd rax,DWORD PTR [rsp+0x20]
   140004e38:	48 8b 4c 24 50       	mov    rcx,QWORD PTR [rsp+0x50]
   140004e3d:	0f be 04 01          	movsx  eax,BYTE PTR [rcx+rax*1]
   140004e41:	89 44 24 28          	mov    DWORD PTR [rsp+0x28],eax
   140004e45:	8b 15 f5 21 00 00    	mov    edx,DWORD PTR [rip+0x21f5]        # 0x140007040
   140004e4b:	8b 4c 24 24          	mov    ecx,DWORD PTR [rsp+0x24]
   140004e4f:	e8 1c 00 00 00       	call   0x140004e70
   140004e54:	8b 4c 24 28          	mov    ecx,DWORD PTR [rsp+0x28]
   140004e58:	03 c8                	add    ecx,eax
   140004e5a:	8b c1                	mov    eax,ecx
   140004e5c:	89 44 24 24          	mov    DWORD PTR [rsp+0x24],eax
   140004e60:	eb a9                	jmp    0x140004e0b
   140004e62:	8b 44 24 24          	mov    eax,DWORD PTR [rsp+0x24]
   140004e66:	48 83 c4 48          	add    rsp,0x48
   140004e6a:	c3                   	ret
   140004e6b:	cc                   	int3
   140004e6c:	cc                   	int3
   140004e6d:	cc                   	int3
   140004e6e:	cc                   	int3
   140004e6f:	cc                   	int3
   140004e70:	89 54 24 10          	mov    DWORD PTR [rsp+0x10],edx
   140004e74:	89 4c 24 08          	mov    DWORD PTR [rsp+0x8],ecx
   140004e78:	48 83 ec 18          	sub    rsp,0x18
   140004e7c:	c7 04 24 1f 00 00 00 	mov    DWORD PTR [rsp],0x1f
   140004e83:	8b 04 24             	mov    eax,DWORD PTR [rsp]
   140004e86:	8b 4c 24 28          	mov    ecx,DWORD PTR [rsp+0x28]
   140004e8a:	23 c8                	and    ecx,eax
   140004e8c:	8b c1                	mov    eax,ecx
   140004e8e:	89 44 24 28          	mov    DWORD PTR [rsp+0x28],eax
   140004e92:	8b 44 24 28          	mov    eax,DWORD PTR [rsp+0x28]
   140004e96:	0f b6 c8             	movzx  ecx,al
   140004e99:	8b 44 24 20          	mov    eax,DWORD PTR [rsp+0x20]
   140004e9d:	d3 e8                	shr    eax,cl
   140004e9f:	8b 4c 24 28          	mov    ecx,DWORD PTR [rsp+0x28]
   140004ea3:	f7 d9                	neg    ecx
   140004ea5:	23 0c 24             	and    ecx,DWORD PTR [rsp]
   140004ea8:	8b 54 24 20          	mov    edx,DWORD PTR [rsp+0x20]
   140004eac:	d3 e2                	shl    edx,cl
   140004eae:	8b ca                	mov    ecx,edx
   140004eb0:	0b c1                	or     eax,ecx
   140004eb2:	48 83 c4 18          	add    rsp,0x18
   140004eb6:	c3                   	ret
   140004eb7:	cc                   	int3
   140004eb8:	cc                   	int3
   140004eb9:	cc                   	int3
   140004eba:	cc                   	int3
   140004ebb:	cc                   	int3
   140004ebc:	cc                   	int3
   140004ebd:	cc                   	int3
   140004ebe:	cc                   	int3
   140004ebf:	cc                   	int3
   140004ec0:	48 83 ec 58          	sub    rsp,0x58
   140004ec4:	65 48 8b 04 25 60 00 	mov    rax,QWORD PTR gs:0x60
   140004ecb:	00 00 
   140004ecd:	48 89 44 24 10       	mov    QWORD PTR [rsp+0x10],rax
   140004ed2:	48 83 7c 24 10 00    	cmp    QWORD PTR [rsp+0x10],0x0
   140004ed8:	74 0e                	je     0x140004ee8
   140004eda:	48 8b 44 24 10       	mov    rax,QWORD PTR [rsp+0x10]
   140004edf:	83 b8 18 01 00 00 0a 	cmp    DWORD PTR [rax+0x118],0xa
   140004ee6:	74 07                	je     0x140004eef
   140004ee8:	33 c0                	xor    eax,eax
   140004eea:	e9 4f 01 00 00       	jmp    0x14000503e
   140004eef:	48 8b 44 24 10       	mov    rax,QWORD PTR [rsp+0x10]
   140004ef4:	48 8b 40 18          	mov    rax,QWORD PTR [rax+0x18]
   140004ef8:	48 8b 40 20          	mov    rax,QWORD PTR [rax+0x20]
   140004efc:	48 8b 00             	mov    rax,QWORD PTR [rax]
   140004eff:	48 83 e8 10          	sub    rax,0x10
   140004f03:	48 89 44 24 28       	mov    QWORD PTR [rsp+0x28],rax
   140004f08:	48 8b 44 24 28       	mov    rax,QWORD PTR [rsp+0x28]
   140004f0d:	48 8b 40 30          	mov    rax,QWORD PTR [rax+0x30]
   140004f11:	48 89 04 24          	mov    QWORD PTR [rsp],rax
   140004f15:	48 83 3c 24 00       	cmp    QWORD PTR [rsp],0x0
   140004f1a:	75 07                	jne    0x140004f23
   140004f1c:	33 c0                	xor    eax,eax
   140004f1e:	e9 1b 01 00 00       	jmp    0x14000503e
   140004f23:	48 8b 04 24          	mov    rax,QWORD PTR [rsp]
   140004f27:	48 89 44 24 18       	mov    QWORD PTR [rsp+0x18],rax
   140004f2c:	48 8b 44 24 18       	mov    rax,QWORD PTR [rsp+0x18]
   140004f31:	0f b7 00             	movzx  eax,WORD PTR [rax]
   140004f34:	3d 4d 5a 00 00       	cmp    eax,0x5a4d
   140004f39:	74 07                	je     0x140004f42
   140004f3b:	33 c0                	xor    eax,eax
   140004f3d:	e9 fc 00 00 00       	jmp    0x14000503e
   140004f42:	48 8b 44 24 18       	mov    rax,QWORD PTR [rsp+0x18]
   140004f47:	48 63 40 3c          	movsxd rax,DWORD PTR [rax+0x3c]
   140004f4b:	48 8b 0c 24          	mov    rcx,QWORD PTR [rsp]
   140004f4f:	48 03 c8             	add    rcx,rax
   140004f52:	48 8b c1             	mov    rax,rcx
   140004f55:	48 89 44 24 20       	mov    QWORD PTR [rsp+0x20],rax
   140004f5a:	48 8b 44 24 20       	mov    rax,QWORD PTR [rsp+0x20]
   140004f5f:	81 38 50 45 00 00    	cmp    DWORD PTR [rax],0x4550
   140004f65:	74 07                	je     0x140004f6e
   140004f67:	33 c0                	xor    eax,eax
   140004f69:	e9 d0 00 00 00       	jmp    0x14000503e
   140004f6e:	b8 08 00 00 00       	mov    eax,0x8
   140004f73:	48 6b c0 00          	imul   rax,rax,0x0
   140004f77:	48 8b 4c 24 20       	mov    rcx,QWORD PTR [rsp+0x20]
   140004f7c:	8b 84 01 88 00 00 00 	mov    eax,DWORD PTR [rcx+rax*1+0x88]
   140004f83:	48 8b 0c 24          	mov    rcx,QWORD PTR [rsp]
   140004f87:	48 03 c8             	add    rcx,rax
   140004f8a:	48 8b c1             	mov    rax,rcx
   140004f8d:	48 89 44 24 08       	mov    QWORD PTR [rsp+0x8],rax
   140004f92:	48 83 7c 24 08 00    	cmp    QWORD PTR [rsp+0x8],0x0
   140004f98:	75 07                	jne    0x140004fa1
   140004f9a:	33 c0                	xor    eax,eax
   140004f9c:	e9 9d 00 00 00       	jmp    0x14000503e
   140004fa1:	48 8b 44 24 08       	mov    rax,QWORD PTR [rsp+0x8]
   140004fa6:	8b 40 1c             	mov    eax,DWORD PTR [rax+0x1c]
   140004fa9:	48 8b 0c 24          	mov    rcx,QWORD PTR [rsp]
   140004fad:	48 03 c8             	add    rcx,rax
   140004fb0:	48 8b c1             	mov    rax,rcx
   140004fb3:	48 89 44 24 30       	mov    QWORD PTR [rsp+0x30],rax
   140004fb8:	48 8b 44 24 08       	mov    rax,QWORD PTR [rsp+0x8]
   140004fbd:	8b 40 20             	mov    eax,DWORD PTR [rax+0x20]
   140004fc0:	48 8b 0c 24          	mov    rcx,QWORD PTR [rsp]
   140004fc4:	48 03 c8             	add    rcx,rax
   140004fc7:	48 8b c1             	mov    rax,rcx
   140004fca:	48 89 44 24 38       	mov    QWORD PTR [rsp+0x38],rax
   140004fcf:	48 8b 44 24 08       	mov    rax,QWORD PTR [rsp+0x8]
   140004fd4:	8b 40 24             	mov    eax,DWORD PTR [rax+0x24]
   140004fd7:	48 8b 0c 24          	mov    rcx,QWORD PTR [rsp]
   140004fdb:	48 03 c8             	add    rcx,rax
   140004fde:	48 8b c1             	mov    rax,rcx
   140004fe1:	48 89 44 24 40       	mov    QWORD PTR [rsp+0x40],rax
   140004fe6:	48 8b 04 24          	mov    rax,QWORD PTR [rsp]
   140004fea:	48 89 05 6f 20 00 00 	mov    QWORD PTR [rip+0x206f],rax        # 0x140007060
   140004ff1:	48 8b 44 24 18       	mov    rax,QWORD PTR [rsp+0x18]
   140004ff6:	48 89 05 6b 20 00 00 	mov    QWORD PTR [rip+0x206b],rax        # 0x140007068
   140004ffd:	48 8b 44 24 20       	mov    rax,QWORD PTR [rsp+0x20]
   140005002:	48 89 05 67 20 00 00 	mov    QWORD PTR [rip+0x2067],rax        # 0x140007070
   140005009:	48 8b 44 24 08       	mov    rax,QWORD PTR [rsp+0x8]
   14000500e:	48 89 05 63 20 00 00 	mov    QWORD PTR [rip+0x2063],rax        # 0x140007078
   140005015:	48 8b 44 24 30       	mov    rax,QWORD PTR [rsp+0x30]
   14000501a:	48 89 05 5f 20 00 00 	mov    QWORD PTR [rip+0x205f],rax        # 0x140007080
   140005021:	48 8b 44 24 38       	mov    rax,QWORD PTR [rsp+0x38]
   140005026:	48 89 05 5b 20 00 00 	mov    QWORD PTR [rip+0x205b],rax        # 0x140007088
   14000502d:	48 8b 44 24 40       	mov    rax,QWORD PTR [rsp+0x40]
   140005032:	48 89 05 57 20 00 00 	mov    QWORD PTR [rip+0x2057],rax        # 0x140007090
   140005039:	b8 01 00 00 00       	mov    eax,0x1
   14000503e:	48 83 c4 58          	add    rsp,0x58
   140005042:	c3                   	ret
   140005043:	cc                   	int3
   140005044:	cc                   	int3
   140005045:	cc                   	int3
   140005046:	cc                   	int3
   140005047:	cc                   	int3
   140005048:	cc                   	int3
   140005049:	cc                   	int3
   14000504a:	cc                   	int3
   14000504b:	cc                   	int3
   14000504c:	cc                   	int3
   14000504d:	cc                   	int3
   14000504e:	cc                   	int3
   14000504f:	cc                   	int3
   140005050:	89 4c 24 08          	mov    DWORD PTR [rsp+0x8],ecx
   140005054:	8b 44 24 08          	mov    eax,DWORD PTR [rsp+0x8]
   140005058:	89 05 e2 1f 00 00    	mov    DWORD PTR [rip+0x1fe2],eax        # 0x140007040
   14000505e:	c3                   	ret
   14000505f:	cc                   	int3
   140005060:	89 4c 24 08          	mov    DWORD PTR [rsp+0x8],ecx
   140005064:	48 83 ec 58          	sub    rsp,0x58
   140005068:	48 63 44 24 60       	movsxd rax,DWORD PTR [rsp+0x60]
   14000506d:	48 85 c0             	test   rax,rax
   140005070:	75 07                	jne    0x140005079
   140005072:	33 c0                	xor    eax,eax
   140005074:	e9 f7 05 00 00       	jmp    0x140005670
   140005079:	48 83 3d df 1f 00 00 	cmp    QWORD PTR [rip+0x1fdf],0x0        # 0x140007060
   140005080:	00 
   140005081:	74 1e                	je     0x1400050a1
   140005083:	48 83 3d f5 1f 00 00 	cmp    QWORD PTR [rip+0x1ff5],0x0        # 0x140007080
   14000508a:	00 
   14000508b:	74 14                	je     0x1400050a1
   14000508d:	48 83 3d f3 1f 00 00 	cmp    QWORD PTR [rip+0x1ff3],0x0        # 0x140007088
   140005094:	00 
   140005095:	74 0a                	je     0x1400050a1
   140005097:	48 83 3d f1 1f 00 00 	cmp    QWORD PTR [rip+0x1ff1],0x0        # 0x140007090
   14000509e:	00 
   14000509f:	75 10                	jne    0x1400050b1
   1400050a1:	e8 1a fe ff ff       	call   0x140004ec0
   1400050a6:	85 c0                	test   eax,eax
   1400050a8:	75 07                	jne    0x1400050b1
   1400050aa:	33 c0                	xor    eax,eax
   1400050ac:	e9 bf 05 00 00       	jmp    0x140005670
   1400050b1:	33 c0                	xor    eax,eax
   1400050b3:	66 89 44 24 30       	mov    WORD PTR [rsp+0x30],ax
   1400050b8:	eb 0d                	jmp    0x1400050c7
   1400050ba:	0f b7 44 24 30       	movzx  eax,WORD PTR [rsp+0x30]
   1400050bf:	66 ff c0             	inc    ax
   1400050c2:	66 89 44 24 30       	mov    WORD PTR [rsp+0x30],ax
   1400050c7:	0f b7 44 24 30       	movzx  eax,WORD PTR [rsp+0x30]
   1400050cc:	48 8b 0d a5 1f 00 00 	mov    rcx,QWORD PTR [rip+0x1fa5]        # 0x140007078
   1400050d3:	3b 41 18             	cmp    eax,DWORD PTR [rcx+0x18]
   1400050d6:	0f 83 92 05 00 00    	jae    0x14000566e
   1400050dc:	0f b7 44 24 30       	movzx  eax,WORD PTR [rsp+0x30]
   1400050e1:	48 8b 0d a0 1f 00 00 	mov    rcx,QWORD PTR [rip+0x1fa0]        # 0x140007088
   1400050e8:	8b 04 81             	mov    eax,DWORD PTR [rcx+rax*4]
   1400050eb:	48 8b 0d 6e 1f 00 00 	mov    rcx,QWORD PTR [rip+0x1f6e]        # 0x140007060
   1400050f2:	48 03 c8             	add    rcx,rax
   1400050f5:	48 8b c1             	mov    rax,rcx
   1400050f8:	48 89 44 24 40       	mov    QWORD PTR [rsp+0x40],rax
   1400050fd:	0f b7 44 24 30       	movzx  eax,WORD PTR [rsp+0x30]
   140005102:	48 8b 0d 87 1f 00 00 	mov    rcx,QWORD PTR [rip+0x1f87]        # 0x140007090
   140005109:	0f b7 04 41          	movzx  eax,WORD PTR [rcx+rax*2]
   14000510d:	48 8b 0d 6c 1f 00 00 	mov    rcx,QWORD PTR [rip+0x1f6c]        # 0x140007080
   140005114:	8b 04 81             	mov    eax,DWORD PTR [rcx+rax*4]
   140005117:	48 8b 0d 42 1f 00 00 	mov    rcx,QWORD PTR [rip+0x1f42]        # 0x140007060
   14000511e:	48 03 c8             	add    rcx,rax
   140005121:	48 8b c1             	mov    rax,rcx
   140005124:	48 89 44 24 28       	mov    QWORD PTR [rsp+0x28],rax
   140005129:	48 8b 4c 24 40       	mov    rcx,QWORD PTR [rsp+0x40]
   14000512e:	e8 bd fc ff ff       	call   0x140004df0
   140005133:	3b 44 24 60          	cmp    eax,DWORD PTR [rsp+0x60]
   140005137:	0f 85 2c 05 00 00    	jne    0x140005669
   14000513d:	48 8b 44 24 28       	mov    rax,QWORD PTR [rsp+0x28]
   140005142:	48 89 05 ff 1e 00 00 	mov    QWORD PTR [rip+0x1eff],rax        # 0x140007048
   140005149:	48 8b 44 24 28       	mov    rax,QWORD PTR [rsp+0x28]
   14000514e:	0f b6 00             	movzx  eax,BYTE PTR [rax]
   140005151:	83 f8 4c             	cmp    eax,0x4c
   140005154:	0f 85 84 00 00 00    	jne    0x1400051de
   14000515a:	48 8b 44 24 28       	mov    rax,QWORD PTR [rsp+0x28]
   14000515f:	0f b6 40 01          	movzx  eax,BYTE PTR [rax+0x1]
   140005163:	3d 8b 00 00 00       	cmp    eax,0x8b
   140005168:	75 74                	jne    0x1400051de
   14000516a:	48 8b 44 24 28       	mov    rax,QWORD PTR [rsp+0x28]
   14000516f:	0f b6 40 02          	movzx  eax,BYTE PTR [rax+0x2]
   140005173:	3d d1 00 00 00       	cmp    eax,0xd1
   140005178:	75 64                	jne    0x1400051de
   14000517a:	48 8b 44 24 28       	mov    rax,QWORD PTR [rsp+0x28]
   14000517f:	0f b6 40 03          	movzx  eax,BYTE PTR [rax+0x3]
   140005183:	3d b8 00 00 00       	cmp    eax,0xb8
   140005188:	75 54                	jne    0x1400051de
   14000518a:	48 8b 44 24 28       	mov    rax,QWORD PTR [rsp+0x28]
   14000518f:	0f b6 40 06          	movzx  eax,BYTE PTR [rax+0x6]
   140005193:	85 c0                	test   eax,eax
   140005195:	75 47                	jne    0x1400051de
   140005197:	48 8b 44 24 28       	mov    rax,QWORD PTR [rsp+0x28]
   14000519c:	0f b6 40 07          	movzx  eax,BYTE PTR [rax+0x7]
   1400051a0:	85 c0                	test   eax,eax
   1400051a2:	75 3a                	jne    0x1400051de
   1400051a4:	48 8b 44 24 28       	mov    rax,QWORD PTR [rsp+0x28]
   1400051a9:	0f b6 40 05          	movzx  eax,BYTE PTR [rax+0x5]
   1400051ad:	88 44 24 34          	mov    BYTE PTR [rsp+0x34],al
   1400051b1:	48 8b 44 24 28       	mov    rax,QWORD PTR [rsp+0x28]
   1400051b6:	0f b6 40 04          	movzx  eax,BYTE PTR [rax+0x4]
   1400051ba:	88 44 24 35          	mov    BYTE PTR [rsp+0x35],al
   1400051be:	0f b6 44 24 34       	movzx  eax,BYTE PTR [rsp+0x34]
   1400051c3:	c1 e0 08             	shl    eax,0x8
   1400051c6:	0f b6 4c 24 35       	movzx  ecx,BYTE PTR [rsp+0x35]
   1400051cb:	0b c1                	or     eax,ecx
   1400051cd:	66 89 05 84 1e 00 00 	mov    WORD PTR [rip+0x1e84],ax        # 0x140007058
   1400051d4:	b8 01 00 00 00       	mov    eax,0x1
   1400051d9:	e9 92 04 00 00       	jmp    0x140005670
   1400051de:	48 8b 44 24 28       	mov    rax,QWORD PTR [rsp+0x28]
   1400051e3:	0f b6 00             	movzx  eax,BYTE PTR [rax]
   1400051e6:	3d e9 00 00 00       	cmp    eax,0xe9
   1400051eb:	0f 85 35 02 00 00    	jne    0x140005426
   1400051f1:	b8 01 00 00 00       	mov    eax,0x1
   1400051f6:	66 89 44 24 20       	mov    WORD PTR [rsp+0x20],ax
   1400051fb:	eb 0d                	jmp    0x14000520a
   1400051fd:	0f b7 44 24 20       	movzx  eax,WORD PTR [rsp+0x20]
   140005202:	66 ff c0             	inc    ax
   140005205:	66 89 44 24 20       	mov    WORD PTR [rsp+0x20],ax
   14000520a:	0f b7 44 24 20       	movzx  eax,WORD PTR [rsp+0x20]
   14000520f:	3d f4 01 00 00       	cmp    eax,0x1f4
   140005214:	0f 8f 05 02 00 00    	jg     0x14000541f
   14000521a:	0f b7 44 24 20       	movzx  eax,WORD PTR [rsp+0x20]
   14000521f:	6b c0 20             	imul   eax,eax,0x20
   140005222:	48 98                	cdqe
   140005224:	48 8b 4c 24 28       	mov    rcx,QWORD PTR [rsp+0x28]
   140005229:	0f b6 04 01          	movzx  eax,BYTE PTR [rcx+rax*1]
   14000522d:	83 f8 4c             	cmp    eax,0x4c
   140005230:	0f 85 e4 00 00 00    	jne    0x14000531a
   140005236:	0f b7 44 24 20       	movzx  eax,WORD PTR [rsp+0x20]
   14000523b:	6b c0 20             	imul   eax,eax,0x20
   14000523e:	48 98                	cdqe
   140005240:	48 8b 4c 24 28       	mov    rcx,QWORD PTR [rsp+0x28]
   140005245:	0f b6 44 01 01       	movzx  eax,BYTE PTR [rcx+rax*1+0x1]
   14000524a:	3d 8b 00 00 00       	cmp    eax,0x8b
   14000524f:	0f 85 c5 00 00 00    	jne    0x14000531a
   140005255:	0f b7 44 24 20       	movzx  eax,WORD PTR [rsp+0x20]
   14000525a:	6b c0 20             	imul   eax,eax,0x20
   14000525d:	48 98                	cdqe
   14000525f:	48 8b 4c 24 28       	mov    rcx,QWORD PTR [rsp+0x28]
   140005264:	0f b6 44 01 02       	movzx  eax,BYTE PTR [rcx+rax*1+0x2]
   140005269:	3d d1 00 00 00       	cmp    eax,0xd1
   14000526e:	0f 85 a6 00 00 00    	jne    0x14000531a
   140005274:	0f b7 44 24 20       	movzx  eax,WORD PTR [rsp+0x20]
   140005279:	6b c0 20             	imul   eax,eax,0x20
   14000527c:	48 98                	cdqe
   14000527e:	48 8b 4c 24 28       	mov    rcx,QWORD PTR [rsp+0x28]
   140005283:	0f b6 44 01 03       	movzx  eax,BYTE PTR [rcx+rax*1+0x3]
   140005288:	3d b8 00 00 00       	cmp    eax,0xb8
   14000528d:	0f 85 87 00 00 00    	jne    0x14000531a
   140005293:	0f b7 44 24 20       	movzx  eax,WORD PTR [rsp+0x20]
   140005298:	6b c0 20             	imul   eax,eax,0x20
   14000529b:	48 98                	cdqe
   14000529d:	48 8b 4c 24 28       	mov    rcx,QWORD PTR [rsp+0x28]
   1400052a2:	0f b6 44 01 06       	movzx  eax,BYTE PTR [rcx+rax*1+0x6]
   1400052a7:	85 c0                	test   eax,eax
   1400052a9:	75 6f                	jne    0x14000531a
   1400052ab:	0f b7 44 24 20       	movzx  eax,WORD PTR [rsp+0x20]
   1400052b0:	6b c0 20             	imul   eax,eax,0x20
   1400052b3:	48 98                	cdqe
   1400052b5:	48 8b 4c 24 28       	mov    rcx,QWORD PTR [rsp+0x28]
   1400052ba:	0f b6 44 01 07       	movzx  eax,BYTE PTR [rcx+rax*1+0x7]
   1400052bf:	85 c0                	test   eax,eax
   1400052c1:	75 57                	jne    0x14000531a
   1400052c3:	0f b7 44 24 20       	movzx  eax,WORD PTR [rsp+0x20]
   1400052c8:	6b c0 20             	imul   eax,eax,0x20
   1400052cb:	48 98                	cdqe
   1400052cd:	48 8b 4c 24 28       	mov    rcx,QWORD PTR [rsp+0x28]
   1400052d2:	0f b6 44 01 05       	movzx  eax,BYTE PTR [rcx+rax*1+0x5]
   1400052d7:	88 44 24 36          	mov    BYTE PTR [rsp+0x36],al
   1400052db:	0f b7 44 24 20       	movzx  eax,WORD PTR [rsp+0x20]
   1400052e0:	6b c0 20             	imul   eax,eax,0x20
   1400052e3:	48 98                	cdqe
   1400052e5:	48 8b 4c 24 28       	mov    rcx,QWORD PTR [rsp+0x28]
   1400052ea:	0f b6 44 01 04       	movzx  eax,BYTE PTR [rcx+rax*1+0x4]
   1400052ef:	88 44 24 37          	mov    BYTE PTR [rsp+0x37],al
   1400052f3:	0f b6 44 24 36       	movzx  eax,BYTE PTR [rsp+0x36]
   1400052f8:	c1 e0 08             	shl    eax,0x8
   1400052fb:	0f b6 4c 24 37       	movzx  ecx,BYTE PTR [rsp+0x37]
   140005300:	0f b7 54 24 20       	movzx  edx,WORD PTR [rsp+0x20]
   140005305:	2b ca                	sub    ecx,edx
   140005307:	0b c1                	or     eax,ecx
   140005309:	66 89 05 48 1d 00 00 	mov    WORD PTR [rip+0x1d48],ax        # 0x140007058
   140005310:	b8 01 00 00 00       	mov    eax,0x1
   140005315:	e9 56 03 00 00       	jmp    0x140005670
   14000531a:	0f b7 44 24 20       	movzx  eax,WORD PTR [rsp+0x20]
   14000531f:	6b c0 e0             	imul   eax,eax,0xffffffe0
   140005322:	48 98                	cdqe
   140005324:	48 8b 4c 24 28       	mov    rcx,QWORD PTR [rsp+0x28]
   140005329:	0f b6 04 01          	movzx  eax,BYTE PTR [rcx+rax*1]
   14000532d:	83 f8 4c             	cmp    eax,0x4c
   140005330:	0f 85 e4 00 00 00    	jne    0x14000541a
   140005336:	0f b7 44 24 20       	movzx  eax,WORD PTR [rsp+0x20]
   14000533b:	6b c0 e0             	imul   eax,eax,0xffffffe0
   14000533e:	48 98                	cdqe
   140005340:	48 8b 4c 24 28       	mov    rcx,QWORD PTR [rsp+0x28]
   140005345:	0f b6 44 01 01       	movzx  eax,BYTE PTR [rcx+rax*1+0x1]
   14000534a:	3d 8b 00 00 00       	cmp    eax,0x8b
   14000534f:	0f 85 c5 00 00 00    	jne    0x14000541a
   140005355:	0f b7 44 24 20       	movzx  eax,WORD PTR [rsp+0x20]
   14000535a:	6b c0 e0             	imul   eax,eax,0xffffffe0
   14000535d:	48 98                	cdqe
   14000535f:	48 8b 4c 24 28       	mov    rcx,QWORD PTR [rsp+0x28]
   140005364:	0f b6 44 01 02       	movzx  eax,BYTE PTR [rcx+rax*1+0x2]
   140005369:	3d d1 00 00 00       	cmp    eax,0xd1
   14000536e:	0f 85 a6 00 00 00    	jne    0x14000541a
   140005374:	0f b7 44 24 20       	movzx  eax,WORD PTR [rsp+0x20]
   140005379:	6b c0 e0             	imul   eax,eax,0xffffffe0
   14000537c:	48 98                	cdqe
   14000537e:	48 8b 4c 24 28       	mov    rcx,QWORD PTR [rsp+0x28]
   140005383:	0f b6 44 01 03       	movzx  eax,BYTE PTR [rcx+rax*1+0x3]
   140005388:	3d b8 00 00 00       	cmp    eax,0xb8
   14000538d:	0f 85 87 00 00 00    	jne    0x14000541a
   140005393:	0f b7 44 24 20       	movzx  eax,WORD PTR [rsp+0x20]
   140005398:	6b c0 e0             	imul   eax,eax,0xffffffe0
   14000539b:	48 98                	cdqe
   14000539d:	48 8b 4c 24 28       	mov    rcx,QWORD PTR [rsp+0x28]
   1400053a2:	0f b6 44 01 06       	movzx  eax,BYTE PTR [rcx+rax*1+0x6]
   1400053a7:	85 c0                	test   eax,eax
   1400053a9:	75 6f                	jne    0x14000541a
   1400053ab:	0f b7 44 24 20       	movzx  eax,WORD PTR [rsp+0x20]
   1400053b0:	6b c0 e0             	imul   eax,eax,0xffffffe0
   1400053b3:	48 98                	cdqe
   1400053b5:	48 8b 4c 24 28       	mov    rcx,QWORD PTR [rsp+0x28]
   1400053ba:	0f b6 44 01 07       	movzx  eax,BYTE PTR [rcx+rax*1+0x7]
   1400053bf:	85 c0                	test   eax,eax
   1400053c1:	75 57                	jne    0x14000541a
   1400053c3:	0f b7 44 24 20       	movzx  eax,WORD PTR [rsp+0x20]
   1400053c8:	6b c0 e0             	imul   eax,eax,0xffffffe0
   1400053cb:	48 98                	cdqe
   1400053cd:	48 8b 4c 24 28       	mov    rcx,QWORD PTR [rsp+0x28]
   1400053d2:	0f b6 44 01 05       	movzx  eax,BYTE PTR [rcx+rax*1+0x5]
   1400053d7:	88 44 24 38          	mov    BYTE PTR [rsp+0x38],al
   1400053db:	0f b7 44 24 20       	movzx  eax,WORD PTR [rsp+0x20]
   1400053e0:	6b c0 e0             	imul   eax,eax,0xffffffe0
   1400053e3:	48 98                	cdqe
   1400053e5:	48 8b 4c 24 28       	mov    rcx,QWORD PTR [rsp+0x28]
   1400053ea:	0f b6 44 01 04       	movzx  eax,BYTE PTR [rcx+rax*1+0x4]
   1400053ef:	88 44 24 39          	mov    BYTE PTR [rsp+0x39],al
   1400053f3:	0f b6 44 24 38       	movzx  eax,BYTE PTR [rsp+0x38]
   1400053f8:	c1 e0 08             	shl    eax,0x8
   1400053fb:	0f b6 4c 24 39       	movzx  ecx,BYTE PTR [rsp+0x39]
   140005400:	0f b7 54 24 20       	movzx  edx,WORD PTR [rsp+0x20]
   140005405:	03 ca                	add    ecx,edx
   140005407:	0b c1                	or     eax,ecx
   140005409:	66 89 05 48 1c 00 00 	mov    WORD PTR [rip+0x1c48],ax        # 0x140007058
   140005410:	b8 01 00 00 00       	mov    eax,0x1
   140005415:	e9 56 02 00 00       	jmp    0x140005670
   14000541a:	e9 de fd ff ff       	jmp    0x1400051fd
   14000541f:	33 c0                	xor    eax,eax
   140005421:	e9 4a 02 00 00       	jmp    0x140005670
   140005426:	48 8b 44 24 28       	mov    rax,QWORD PTR [rsp+0x28]
   14000542b:	0f b6 40 03          	movzx  eax,BYTE PTR [rax+0x3]
   14000542f:	3d e9 00 00 00       	cmp    eax,0xe9
   140005434:	0f 85 2f 02 00 00    	jne    0x140005669
   14000543a:	b8 01 00 00 00       	mov    eax,0x1
   14000543f:	66 89 44 24 24       	mov    WORD PTR [rsp+0x24],ax
   140005444:	eb 0d                	jmp    0x140005453
   140005446:	0f b7 44 24 24       	movzx  eax,WORD PTR [rsp+0x24]
   14000544b:	66 ff c0             	inc    ax
   14000544e:	66 89 44 24 24       	mov    WORD PTR [rsp+0x24],ax
   140005453:	0f b7 44 24 24       	movzx  eax,WORD PTR [rsp+0x24]
   140005458:	3d f4 01 00 00       	cmp    eax,0x1f4
   14000545d:	0f 8f 02 02 00 00    	jg     0x140005665
   140005463:	0f b7 44 24 24       	movzx  eax,WORD PTR [rsp+0x24]
   140005468:	6b c0 20             	imul   eax,eax,0x20
   14000546b:	48 98                	cdqe
   14000546d:	48 8b 4c 24 28       	mov    rcx,QWORD PTR [rsp+0x28]
   140005472:	0f b6 04 01          	movzx  eax,BYTE PTR [rcx+rax*1]
   140005476:	83 f8 4c             	cmp    eax,0x4c
   140005479:	0f 85 e4 00 00 00    	jne    0x140005563
   14000547f:	0f b7 44 24 24       	movzx  eax,WORD PTR [rsp+0x24]
   140005484:	6b c0 20             	imul   eax,eax,0x20
   140005487:	48 98                	cdqe
   140005489:	48 8b 4c 24 28       	mov    rcx,QWORD PTR [rsp+0x28]
   14000548e:	0f b6 44 01 01       	movzx  eax,BYTE PTR [rcx+rax*1+0x1]
   140005493:	3d 8b 00 00 00       	cmp    eax,0x8b
   140005498:	0f 85 c5 00 00 00    	jne    0x140005563
   14000549e:	0f b7 44 24 24       	movzx  eax,WORD PTR [rsp+0x24]
   1400054a3:	6b c0 20             	imul   eax,eax,0x20
   1400054a6:	48 98                	cdqe
   1400054a8:	48 8b 4c 24 28       	mov    rcx,QWORD PTR [rsp+0x28]
   1400054ad:	0f b6 44 01 02       	movzx  eax,BYTE PTR [rcx+rax*1+0x2]
   1400054b2:	3d d1 00 00 00       	cmp    eax,0xd1
   1400054b7:	0f 85 a6 00 00 00    	jne    0x140005563
   1400054bd:	0f b7 44 24 24       	movzx  eax,WORD PTR [rsp+0x24]
   1400054c2:	6b c0 20             	imul   eax,eax,0x20
   1400054c5:	48 98                	cdqe
   1400054c7:	48 8b 4c 24 28       	mov    rcx,QWORD PTR [rsp+0x28]
   1400054cc:	0f b6 44 01 03       	movzx  eax,BYTE PTR [rcx+rax*1+0x3]
   1400054d1:	3d b8 00 00 00       	cmp    eax,0xb8
   1400054d6:	0f 85 87 00 00 00    	jne    0x140005563
   1400054dc:	0f b7 44 24 24       	movzx  eax,WORD PTR [rsp+0x24]
   1400054e1:	6b c0 20             	imul   eax,eax,0x20
   1400054e4:	48 98                	cdqe
   1400054e6:	48 8b 4c 24 28       	mov    rcx,QWORD PTR [rsp+0x28]
   1400054eb:	0f b6 44 01 06       	movzx  eax,BYTE PTR [rcx+rax*1+0x6]
   1400054f0:	85 c0                	test   eax,eax
   1400054f2:	75 6f                	jne    0x140005563
   1400054f4:	0f b7 44 24 24       	movzx  eax,WORD PTR [rsp+0x24]
   1400054f9:	6b c0 20             	imul   eax,eax,0x20
   1400054fc:	48 98                	cdqe
   1400054fe:	48 8b 4c 24 28       	mov    rcx,QWORD PTR [rsp+0x28]
   140005503:	0f b6 44 01 07       	movzx  eax,BYTE PTR [rcx+rax*1+0x7]
   140005508:	85 c0                	test   eax,eax
   14000550a:	75 57                	jne    0x140005563
   14000550c:	0f b7 44 24 24       	movzx  eax,WORD PTR [rsp+0x24]
   140005511:	6b c0 20             	imul   eax,eax,0x20
   140005514:	48 98                	cdqe
   140005516:	48 8b 4c 24 28       	mov    rcx,QWORD PTR [rsp+0x28]
   14000551b:	0f b6 44 01 05       	movzx  eax,BYTE PTR [rcx+rax*1+0x5]
   140005520:	88 44 24 3a          	mov    BYTE PTR [rsp+0x3a],al
   140005524:	0f b7 44 24 24       	movzx  eax,WORD PTR [rsp+0x24]
   140005529:	6b c0 20             	imul   eax,eax,0x20
   14000552c:	48 98                	cdqe
   14000552e:	48 8b 4c 24 28       	mov    rcx,QWORD PTR [rsp+0x28]
   140005533:	0f b6 44 01 04       	movzx  eax,BYTE PTR [rcx+rax*1+0x4]
   140005538:	88 44 24 3b          	mov    BYTE PTR [rsp+0x3b],al
   14000553c:	0f b6 44 24 3a       	movzx  eax,BYTE PTR [rsp+0x3a]
   140005541:	c1 e0 08             	shl    eax,0x8
   140005544:	0f b6 4c 24 3b       	movzx  ecx,BYTE PTR [rsp+0x3b]
   140005549:	0f b7 54 24 24       	movzx  edx,WORD PTR [rsp+0x24]
   14000554e:	2b ca                	sub    ecx,edx
   140005550:	0b c1                	or     eax,ecx
   140005552:	66 89 05 ff 1a 00 00 	mov    WORD PTR [rip+0x1aff],ax        # 0x140007058
   140005559:	b8 01 00 00 00       	mov    eax,0x1
   14000555e:	e9 0d 01 00 00       	jmp    0x140005670
   140005563:	0f b7 44 24 24       	movzx  eax,WORD PTR [rsp+0x24]
   140005568:	6b c0 e0             	imul   eax,eax,0xffffffe0
   14000556b:	48 98                	cdqe
   14000556d:	48 8b 4c 24 28       	mov    rcx,QWORD PTR [rsp+0x28]
   140005572:	0f b6 04 01          	movzx  eax,BYTE PTR [rcx+rax*1]
   140005576:	83 f8 4c             	cmp    eax,0x4c
   140005579:	0f 85 e1 00 00 00    	jne    0x140005660
   14000557f:	0f b7 44 24 24       	movzx  eax,WORD PTR [rsp+0x24]
   140005584:	6b c0 e0             	imul   eax,eax,0xffffffe0
   140005587:	48 98                	cdqe
   140005589:	48 8b 4c 24 28       	mov    rcx,QWORD PTR [rsp+0x28]
   14000558e:	0f b6 44 01 01       	movzx  eax,BYTE PTR [rcx+rax*1+0x1]
   140005593:	3d 8b 00 00 00       	cmp    eax,0x8b
   140005598:	0f 85 c2 00 00 00    	jne    0x140005660
   14000559e:	0f b7 44 24 24       	movzx  eax,WORD PTR [rsp+0x24]
   1400055a3:	6b c0 e0             	imul   eax,eax,0xffffffe0
   1400055a6:	48 98                	cdqe
   1400055a8:	48 8b 4c 24 28       	mov    rcx,QWORD PTR [rsp+0x28]
   1400055ad:	0f b6 44 01 02       	movzx  eax,BYTE PTR [rcx+rax*1+0x2]
   1400055b2:	3d d1 00 00 00       	cmp    eax,0xd1
   1400055b7:	0f 85 a3 00 00 00    	jne    0x140005660
   1400055bd:	0f b7 44 24 24       	movzx  eax,WORD PTR [rsp+0x24]
   1400055c2:	6b c0 e0             	imul   eax,eax,0xffffffe0
   1400055c5:	48 98                	cdqe
   1400055c7:	48 8b 4c 24 28       	mov    rcx,QWORD PTR [rsp+0x28]
   1400055cc:	0f b6 44 01 03       	movzx  eax,BYTE PTR [rcx+rax*1+0x3]
   1400055d1:	3d b8 00 00 00       	cmp    eax,0xb8
   1400055d6:	0f 85 84 00 00 00    	jne    0x140005660
   1400055dc:	0f b7 44 24 24       	movzx  eax,WORD PTR [rsp+0x24]
   1400055e1:	6b c0 e0             	imul   eax,eax,0xffffffe0
   1400055e4:	48 98                	cdqe
   1400055e6:	48 8b 4c 24 28       	mov    rcx,QWORD PTR [rsp+0x28]
   1400055eb:	0f b6 44 01 06       	movzx  eax,BYTE PTR [rcx+rax*1+0x6]
   1400055f0:	85 c0                	test   eax,eax
   1400055f2:	75 6c                	jne    0x140005660
   1400055f4:	0f b7 44 24 24       	movzx  eax,WORD PTR [rsp+0x24]
   1400055f9:	6b c0 e0             	imul   eax,eax,0xffffffe0
   1400055fc:	48 98                	cdqe
   1400055fe:	48 8b 4c 24 28       	mov    rcx,QWORD PTR [rsp+0x28]
   140005603:	0f b6 44 01 07       	movzx  eax,BYTE PTR [rcx+rax*1+0x7]
   140005608:	85 c0                	test   eax,eax
   14000560a:	75 54                	jne    0x140005660
   14000560c:	0f b7 44 24 24       	movzx  eax,WORD PTR [rsp+0x24]
   140005611:	6b c0 e0             	imul   eax,eax,0xffffffe0
   140005614:	48 98                	cdqe
   140005616:	48 8b 4c 24 28       	mov    rcx,QWORD PTR [rsp+0x28]
   14000561b:	0f b6 44 01 05       	movzx  eax,BYTE PTR [rcx+rax*1+0x5]
   140005620:	88 44 24 3c          	mov    BYTE PTR [rsp+0x3c],al
   140005624:	0f b7 44 24 24       	movzx  eax,WORD PTR [rsp+0x24]
   140005629:	6b c0 e0             	imul   eax,eax,0xffffffe0
   14000562c:	48 98                	cdqe
   14000562e:	48 8b 4c 24 28       	mov    rcx,QWORD PTR [rsp+0x28]
   140005633:	0f b6 44 01 04       	movzx  eax,BYTE PTR [rcx+rax*1+0x4]
   140005638:	88 44 24 3d          	mov    BYTE PTR [rsp+0x3d],al
   14000563c:	0f b6 44 24 3c       	movzx  eax,BYTE PTR [rsp+0x3c]
   140005641:	c1 e0 08             	shl    eax,0x8
   140005644:	0f b6 4c 24 3d       	movzx  ecx,BYTE PTR [rsp+0x3d]
   140005649:	0f b7 54 24 24       	movzx  edx,WORD PTR [rsp+0x24]
   14000564e:	03 ca                	add    ecx,edx
   140005650:	0b c1                	or     eax,ecx
   140005652:	66 89 05 ff 19 00 00 	mov    WORD PTR [rip+0x19ff],ax        # 0x140007058
   140005659:	b8 01 00 00 00       	mov    eax,0x1
   14000565e:	eb 10                	jmp    0x140005670
   140005660:	e9 e1 fd ff ff       	jmp    0x140005446
   140005665:	33 c0                	xor    eax,eax
   140005667:	eb 07                	jmp    0x140005670
   140005669:	e9 4c fa ff ff       	jmp    0x1400050ba
   14000566e:	33 c0                	xor    eax,eax
   140005670:	48 83 c4 58          	add    rsp,0x58
   140005674:	c3                   	ret
   140005675:	cc                   	int3
   140005676:	cc                   	int3
   140005677:	cc                   	int3
   140005678:	cc                   	int3
   140005679:	cc                   	int3
   14000567a:	cc                   	int3
   14000567b:	cc                   	int3
   14000567c:	cc                   	int3
   14000567d:	cc                   	int3
   14000567e:	cc                   	int3
   14000567f:	cc                   	int3
   140005680:	48 89 4c 24 08       	mov    QWORD PTR [rsp+0x8],rcx
   140005685:	48 83 ec 18          	sub    rsp,0x18
   140005689:	48 8b 44 24 20       	mov    rax,QWORD PTR [rsp+0x20]
   14000568e:	48 89 04 24          	mov    QWORD PTR [rsp],rax
   140005692:	eb 0b                	jmp    0x14000569f
   140005694:	48 8b 04 24          	mov    rax,QWORD PTR [rsp]
   140005698:	48 ff c0             	inc    rax
   14000569b:	48 89 04 24          	mov    QWORD PTR [rsp],rax
   14000569f:	48 8b 04 24          	mov    rax,QWORD PTR [rsp]
   1400056a3:	0f be 00             	movsx  eax,BYTE PTR [rax]
   1400056a6:	85 c0                	test   eax,eax
   1400056a8:	74 02                	je     0x1400056ac
   1400056aa:	eb e8                	jmp    0x140005694
   1400056ac:	48 8b 44 24 20       	mov    rax,QWORD PTR [rsp+0x20]
   1400056b1:	48 8b 0c 24          	mov    rcx,QWORD PTR [rsp]
   1400056b5:	48 2b c8             	sub    rcx,rax
   1400056b8:	48 8b c1             	mov    rax,rcx
   1400056bb:	48 83 c4 18          	add    rsp,0x18
   1400056bf:	c3                   	ret
   1400056c0:	0f b7 05 91 19 00 00 	movzx  eax,WORD PTR [rip+0x1991]        # 0x140007058
   1400056c7:	c3                   	ret
   1400056c8:	cc                   	int3
   1400056c9:	cc                   	int3
   1400056ca:	cc                   	int3
   1400056cb:	cc                   	int3
   1400056cc:	cc                   	int3
   1400056cd:	cc                   	int3
   1400056ce:	cc                   	int3
   1400056cf:	cc                   	int3
   1400056d0:	c7 05 26 19 00 00 00 	mov    DWORD PTR [rip+0x1926],0x0        # 0x140007000
   1400056d7:	00 00 00 
   1400056da:	89 0d 20 19 00 00    	mov    DWORD PTR [rip+0x1920],ecx        # 0x140007000
   1400056e0:	c3                   	ret
   1400056e1:	48 8b c1             	mov    rax,rcx
   1400056e4:	4c 8b d0             	mov    r10,rax
   1400056e7:	8b 05 13 19 00 00    	mov    eax,DWORD PTR [rip+0x1913]        # 0x140007000
   1400056ed:	0f 05                	syscall
   1400056ef:	c3                   	ret

Disassembly of section .rdata:

0000000140006000 <.rdata>:
   140006000:	d8 67 00             	fsub   DWORD PTR [rdi+0x0]
   140006003:	00 00                	add    BYTE PTR [rax],al
   140006005:	00 00                	add    BYTE PTR [rax],al
   140006007:	00 e4                	add    ah,ah
   140006009:	67 00 00             	add    BYTE PTR [eax],al
   14000600c:	00 00                	add    BYTE PTR [rax],al
   14000600e:	00 00                	add    BYTE PTR [rax],al
   140006010:	f0 67 00 00          	lock add BYTE PTR [eax],al
   140006014:	00 00                	add    BYTE PTR [rax],al
   140006016:	00 00                	add    BYTE PTR [rax],al
   140006018:	fc                   	cld
   140006019:	67 00 00             	add    BYTE PTR [eax],al
   14000601c:	00 00                	add    BYTE PTR [rax],al
   14000601e:	00 00                	add    BYTE PTR [rax],al
   140006020:	0e                   	(bad)
   140006021:	68 00 00 00 00       	push   0x0
   140006026:	00 00                	add    BYTE PTR [rax],al
   140006028:	2a 68 00             	sub    ch,BYTE PTR [rax+0x0]
   14000602b:	00 00                	add    BYTE PTR [rax],al
   14000602d:	00 00                	add    BYTE PTR [rax],al
   14000602f:	00 48 68             	add    BYTE PTR [rax+0x68],cl
   140006032:	00 00                	add    BYTE PTR [rax],al
   140006034:	00 00                	add    BYTE PTR [rax],al
   140006036:	00 00                	add    BYTE PTR [rax],al
   140006038:	58                   	pop    rax
   140006039:	68 00 00 00 00       	push   0x0
   14000603e:	00 00                	add    BYTE PTR [rax],al
   140006040:	72 68                	jb     0x1400060aa
   140006042:	00 00                	add    BYTE PTR [rax],al
   140006044:	00 00                	add    BYTE PTR [rax],al
   140006046:	00 00                	add    BYTE PTR [rax],al
   140006048:	8a 68 00             	mov    ch,BYTE PTR [rax+0x0]
   14000604b:	00 00                	add    BYTE PTR [rax],al
   14000604d:	00 00                	add    BYTE PTR [rax],al
   14000604f:	00 a8 68 00 00 00    	add    BYTE PTR [rax+0x68],ch
   140006055:	00 00                	add    BYTE PTR [rax],al
   140006057:	00 c6                	add    dh,al
   140006059:	68 00 00 00 00       	push   0x0
	...
   140006066:	00 00                	add    BYTE PTR [rax],al
   140006068:	f0 68 00 00 00 00    	lock push 0x0
   14000606e:	00 00                	add    BYTE PTR [rax],al
   140006070:	fa                   	cli
   140006071:	68 00 00 00 00       	push   0x0
   140006076:	00 00                	add    BYTE PTR [rax],al
   140006078:	0a 69 00             	or     ch,BYTE PTR [rcx+0x0]
   14000607b:	00 00                	add    BYTE PTR [rax],al
   14000607d:	00 00                	add    BYTE PTR [rax],al
   14000607f:	00 1a                	add    BYTE PTR [rdx],bl
   140006081:	69 00 00 00 00 00    	imul   eax,DWORD PTR [rax],0x0
   140006087:	00 2c 69             	add    BYTE PTR [rcx+rbp*2],ch
   14000608a:	00 00                	add    BYTE PTR [rax],al
   14000608c:	00 00                	add    BYTE PTR [rax],al
   14000608e:	00 00                	add    BYTE PTR [rax],al
   140006090:	3c 69                	cmp    al,0x69
   140006092:	00 00                	add    BYTE PTR [rax],al
   140006094:	00 00                	add    BYTE PTR [rax],al
   140006096:	00 00                	add    BYTE PTR [rax],al
   140006098:	4c 69 00 00 00 00 00 	imul   r8,QWORD PTR [rax],0x0
   14000609f:	00 66 69             	add    BYTE PTR [rsi+0x69],ah
   1400060a2:	00 00                	add    BYTE PTR [rax],al
   1400060a4:	00 00                	add    BYTE PTR [rax],al
   1400060a6:	00 00                	add    BYTE PTR [rax],al
   1400060a8:	74 69                	je     0x140006113
   1400060aa:	00 00                	add    BYTE PTR [rax],al
   1400060ac:	00 00                	add    BYTE PTR [rax],al
   1400060ae:	00 00                	add    BYTE PTR [rax],al
   1400060b0:	82                   	(bad)
   1400060b1:	69 00 00 00 00 00    	imul   eax,DWORD PTR [rax],0x0
	...
   1400060bf:	00 5c 00 4b          	add    BYTE PTR [rax+rax*1+0x4b],bl
   1400060c3:	00 6e 00             	add    BYTE PTR [rsi+0x0],ch
   1400060c6:	6f                   	outs   dx,DWORD PTR ds:[rsi]
   1400060c7:	00 77 00             	add    BYTE PTR [rdi+0x0],dh
   1400060ca:	6e                   	outs   dx,BYTE PTR ds:[rsi]
   1400060cb:	00 44 00 6c          	add    BYTE PTR [rax+rax*1+0x6c],al
   1400060cf:	00 6c 00 73          	add    BYTE PTR [rax+rax*1+0x73],ch
   1400060d3:	00 5c 00 00          	add    BYTE PTR [rax+rax*1+0x0],bl
   1400060d7:	00 4e 00             	add    BYTE PTR [rsi+0x0],cl
   1400060da:	54                   	push   rsp
   1400060db:	00 44 00 4c          	add    BYTE PTR [rax+rax*1+0x4c],al
   1400060df:	00 4c 00 2e          	add    BYTE PTR [rax+rax*1+0x2e],cl
   1400060e3:	00 44 00 4c          	add    BYTE PTR [rax+rax*1+0x4c],al
   1400060e7:	00 4c 00 00          	add    BYTE PTR [rax+rax*1+0x0],cl
   1400060eb:	00 00                	add    BYTE PTR [rax],al
   1400060ed:	00 00                	add    BYTE PTR [rax],al
   1400060ef:	00 4e 54             	add    BYTE PTR [rsi+0x54],cl
   1400060f2:	44                   	rex.R
   1400060f3:	4c                   	rex.WR
   1400060f4:	4c                   	rex.WR
   1400060f5:	2e 44                	cs rex.R
   1400060f7:	4c                   	rex.WR
   1400060f8:	4c 00 00             	rex.WR add BYTE PTR [rax],r8b
   1400060fb:	00 00                	add    BYTE PTR [rax],al
   1400060fd:	00 00                	add    BYTE PTR [rax],al
   1400060ff:	00 4b 45             	add    BYTE PTR [rbx+0x45],cl
   140006102:	52                   	push   rdx
   140006103:	4e                   	rex.WRX
   140006104:	45                   	rex.RB
   140006105:	4c 33 32             	xor    r14,QWORD PTR [rdx]
   140006108:	2e 44                	cs rex.R
   14000610a:	4c                   	rex.WR
   14000610b:	4c 00 00             	rex.WR add BYTE PTR [rax],r8b
   14000610e:	00 00                	add    BYTE PTR [rax],al
   140006110:	00 00                	add    BYTE PTR [rax],al
   140006112:	00 00                	add    BYTE PTR [rax],al
   140006114:	01 02                	add    DWORD PTR [rdx],eax
   140006116:	03 04 05 06 04 05 07 	add    eax,DWORD PTR [rax*1+0x7050406]
   14000611d:	07                   	(bad)
   14000611e:	07                   	(bad)
   14000611f:	07                   	(bad)
   140006120:	07                   	(bad)
   140006121:	07                   	(bad)
   140006122:	07                   	(bad)
   140006123:	0a 0a                	or     cl,BYTE PTR [rdx]
   140006125:	0a 0a                	or     cl,BYTE PTR [rdx]
   140006127:	0a 4c 5a 49          	or     cl,BYTE PTR [rdx+rbx*2+0x49]
   14000612b:	50                   	push   rax
	...
   140006134:	7f 0f                	jg     0x140006145
   140006136:	2f                   	(bad)
   140006137:	63 00                	movsxd eax,DWORD PTR [rax]
   140006139:	00 00                	add    BYTE PTR [rax],al
   14000613b:	00 0d 00 00 00 34    	add    BYTE PTR [rip+0x34000000],cl        # 0x174006141
   140006141:	01 00                	add    DWORD PTR [rax],eax
   140006143:	00 1c 62             	add    BYTE PTR [rdx+riz*2],bl
   140006146:	00 00                	add    BYTE PTR [rax],al
   140006148:	1c 4e                	sbb    al,0x4e
   14000614a:	00 00                	add    BYTE PTR [rax],al
   14000614c:	00 00                	add    BYTE PTR [rax],al
   14000614e:	00 00                	add    BYTE PTR [rax],al
   140006150:	7f 0f                	jg     0x140006161
   140006152:	2f                   	(bad)
   140006153:	63 00                	movsxd eax,DWORD PTR [rax]
   140006155:	00 00                	add    BYTE PTR [rax],al
   140006157:	00 0e                	add    BYTE PTR [rsi],cl
	...
   140006169:	10 00                	adc    BYTE PTR [rax],al
   14000616b:	40 01 00             	rex add DWORD PTR [rax],eax
   14000616e:	00 00                	add    BYTE PTR [rax],al
   140006170:	a0 10 00 40 01 00 00 	movabs al,ds:0xe000000001400010
   140006177:	00 e0 
   140006179:	13 00                	adc    eax,DWORD PTR [rax]
   14000617b:	40 01 00             	rex add DWORD PTR [rax],eax
   14000617e:	00 00                	add    BYTE PTR [rax],al
   140006180:	18 00                	sbb    BYTE PTR [rax],al
   140006182:	00 00                	add    BYTE PTR [rax],al
   140006184:	02 80 02 80 98 61    	add    al,BYTE PTR [rax+0x61988002]
   14000618a:	00 00                	add    BYTE PTR [rax],al
   14000618c:	7c 00                	jl     0x14000618e
   14000618e:	00 00                	add    BYTE PTR [rax],al
   140006190:	14 62                	adc    al,0x62
   140006192:	00 00                	add    BYTE PTR [rax],al
   140006194:	08 00                	or     BYTE PTR [rax],al
   140006196:	00 00                	add    BYTE PTR [rax],al
   140006198:	4b 10 00             	rex.WXB adc BYTE PTR [r8],al
   14000619b:	00 53 10             	add    BYTE PTR [rbx+0x10],dl
   14000619e:	00 00                	add    BYTE PTR [rax],al
   1400061a0:	60                   	(bad)
   1400061a1:	10 00                	adc    BYTE PTR [rax],al
   1400061a3:	00 65 10             	add    BYTE PTR [rbp+0x10],ah
   1400061a6:	00 00                	add    BYTE PTR [rax],al
   1400061a8:	72 10                	jb     0x1400061ba
   1400061aa:	00 00                	add    BYTE PTR [rax],al
   1400061ac:	78 10                	js     0x1400061be
   1400061ae:	00 00                	add    BYTE PTR [rax],al
   1400061b0:	7c 10                	jl     0x1400061c2
   1400061b2:	00 00                	add    BYTE PTR [rax],al
   1400061b4:	d0 10                	rcl    BYTE PTR [rax],1
   1400061b6:	00 00                	add    BYTE PTR [rax],al
   1400061b8:	db 10                	fist   DWORD PTR [rax]
   1400061ba:	00 00                	add    BYTE PTR [rax],al
   1400061bc:	f0 10 00             	lock adc BYTE PTR [rax],al
   1400061bf:	00 f5                	add    ch,dh
   1400061c1:	10 00                	adc    BYTE PTR [rax],al
   1400061c3:	00 02                	add    BYTE PTR [rdx],al
   1400061c5:	11 00                	adc    DWORD PTR [rax],eax
   1400061c7:	00 08                	add    BYTE PTR [rax],cl
   1400061c9:	11 00                	adc    DWORD PTR [rax],eax
   1400061cb:	00 0c 11             	add    BYTE PTR [rcx+rdx*1],cl
   1400061ce:	00 00                	add    BYTE PTR [rax],al
   1400061d0:	88 11                	mov    BYTE PTR [rcx],dl
   1400061d2:	00 00                	add    BYTE PTR [rax],al
   1400061d4:	90                   	nop
   1400061d5:	11 00                	adc    DWORD PTR [rax],eax
   1400061d7:	00 a0 11 00 00 a5    	add    BYTE PTR [rax-0x5affffef],ah
   1400061dd:	11 00                	adc    DWORD PTR [rax],eax
   1400061df:	00 b2 11 00 00 b8    	add    BYTE PTR [rdx-0x47ffffef],dh
   1400061e5:	11 00                	adc    DWORD PTR [rax],eax
   1400061e7:	00 bc 11 00 00 72 12 	add    BYTE PTR [rcx+rdx*1+0x12720000],bh
   1400061ee:	00 00                	add    BYTE PTR [rax],al
   1400061f0:	7d 12                	jge    0x140006204
   1400061f2:	00 00                	add    BYTE PTR [rax],al
   1400061f4:	90                   	nop
   1400061f5:	12 00                	adc    al,BYTE PTR [rax]
   1400061f7:	00 95 12 00 00 a1    	add    BYTE PTR [rbp-0x5effffee],dl
   1400061fd:	12 00                	adc    al,BYTE PTR [rax]
   1400061ff:	00 a7 12 00 00 ab    	add    BYTE PTR [rdi-0x54ffffee],ah
   140006205:	12 00                	adc    al,BYTE PTR [rax]
   140006207:	00 77 16             	add    BYTE PTR [rdi+0x16],dh
   14000620a:	00 00                	add    BYTE PTR [rax],al
   14000620c:	f7 1b                	neg    DWORD PTR [rbx]
   14000620e:	00 00                	add    BYTE PTR [rax],al
   140006210:	c4                   	(bad)
   140006211:	4e 00 00             	rex.WRX add BYTE PTR [rax],r8b
   140006214:	00 10                	add    BYTE PTR [rax],dl
   140006216:	00 00                	add    BYTE PTR [rax],al
   140006218:	d0 46 00             	rol    BYTE PTR [rsi+0x0],1
   14000621b:	00 47 43             	add    BYTE PTR [rdi+0x43],al
   14000621e:	54                   	push   rsp
   14000621f:	4c 00 10             	rex.WR add BYTE PTR [rax],r10b
   140006222:	00 00                	add    BYTE PTR [rax],al
   140006224:	f0 46 00 00          	lock rex.RX add BYTE PTR [rax],r8b
   140006228:	2e 74 65             	cs je  0x140006290
   14000622b:	78 74                	js     0x1400062a1
   14000622d:	24 6d                	and    al,0x6d
   14000622f:	6e                   	outs   dx,BYTE PTR ds:[rsi]
   140006230:	00 00                	add    BYTE PTR [rax],al
   140006232:	00 00                	add    BYTE PTR [rax],al
   140006234:	00 60 00             	add    BYTE PTR [rax+0x0],ah
   140006237:	00 c0                	add    al,al
   140006239:	00 00                	add    BYTE PTR [rax],al
   14000623b:	00 2e                	add    BYTE PTR [rsi],ch
   14000623d:	69 64 61 74 61 24 35 	imul   esp,DWORD PTR [rcx+riz*2+0x74],0x352461
   140006244:	00 
   140006245:	00 00                	add    BYTE PTR [rax],al
   140006247:	00 c0                	add    al,al
   140006249:	60                   	(bad)
   14000624a:	00 00                	add    BYTE PTR [rax],al
   14000624c:	c0 00 00             	rol    BYTE PTR [rax],0x0
   14000624f:	00 2e                	add    BYTE PTR [rsi],ch
   140006251:	72 64                	jb     0x1400062b7
   140006253:	61                   	(bad)
   140006254:	74 61                	je     0x1400062b7
   140006256:	00 00                	add    BYTE PTR [rax],al
   140006258:	80 61 00 00          	and    BYTE PTR [rcx+0x0],0x0
   14000625c:	9c                   	pushf
   14000625d:	00 00                	add    BYTE PTR [rax],al
   14000625f:	00 2e                	add    BYTE PTR [rsi],ch
   140006261:	72 64                	jb     0x1400062c7
   140006263:	61                   	(bad)
   140006264:	74 61                	je     0x1400062c7
   140006266:	24 76                	and    al,0x76
   140006268:	6f                   	outs   dx,DWORD PTR ds:[rsi]
   140006269:	6c                   	ins    BYTE PTR es:[rdi],dx
   14000626a:	74 6d                	je     0x1400062d9
   14000626c:	64 00 00             	add    BYTE PTR fs:[rax],al
   14000626f:	00 1c 62             	add    BYTE PTR [rdx+riz*2],bl
   140006272:	00 00                	add    BYTE PTR [rax],al
   140006274:	34 01                	xor    al,0x1
   140006276:	00 00                	add    BYTE PTR [rax],al
   140006278:	2e 72 64             	cs jb  0x1400062df
   14000627b:	61                   	(bad)
   14000627c:	74 61                	je     0x1400062df
   14000627e:	24 7a                	and    al,0x7a
   140006280:	7a 7a                	jp     0x1400062fc
   140006282:	64 62 67 00 00 00    	(bad)
   140006288:	50                   	push   rax
   140006289:	63 00                	movsxd eax,DWORD PTR [rax]
   14000628b:	00 10                	add    BYTE PTR [rax],dl
   14000628d:	03 00                	add    eax,DWORD PTR [rax]
   14000628f:	00 2e                	add    BYTE PTR [rsi],ch
   140006291:	78 64                	js     0x1400062f7
   140006293:	61                   	(bad)
   140006294:	74 61                	je     0x1400062f7
   140006296:	00 00                	add    BYTE PTR [rax],al
   140006298:	60                   	(bad)
   140006299:	66 00 00             	data16 add BYTE PTR [rax],al
   14000629c:	7c 00                	jl     0x14000629e
   14000629e:	00 00                	add    BYTE PTR [rax],al
   1400062a0:	2e 65 64 61          	cs gs fs (bad)
   1400062a4:	74 61                	je     0x140006307
   1400062a6:	00 00                	add    BYTE PTR [rax],al
   1400062a8:	dc 66 00             	fsub   QWORD PTR [rsi+0x0]
   1400062ab:	00 28                	add    BYTE PTR [rax],ch
   1400062ad:	00 00                	add    BYTE PTR [rax],al
   1400062af:	00 2e                	add    BYTE PTR [rsi],ch
   1400062b1:	69 64 61 74 61 24 32 	imul   esp,DWORD PTR [rcx+riz*2+0x74],0x322461
   1400062b8:	00 
   1400062b9:	00 00                	add    BYTE PTR [rax],al
   1400062bb:	00 04 67             	add    BYTE PTR [rdi+riz*2],al
   1400062be:	00 00                	add    BYTE PTR [rax],al
   1400062c0:	14 00                	adc    al,0x0
   1400062c2:	00 00                	add    BYTE PTR [rax],al
   1400062c4:	2e 69 64 61 74 61 24 	cs imul esp,DWORD PTR [rcx+riz*2+0x74],0x332461
   1400062cb:	33 00 
   1400062cd:	00 00                	add    BYTE PTR [rax],al
   1400062cf:	00 18                	add    BYTE PTR [rax],bl
   1400062d1:	67 00 00             	add    BYTE PTR [eax],al
   1400062d4:	c0 00 00             	rol    BYTE PTR [rax],0x0
   1400062d7:	00 2e                	add    BYTE PTR [rsi],ch
   1400062d9:	69 64 61 74 61 24 34 	imul   esp,DWORD PTR [rcx+riz*2+0x74],0x342461
   1400062e0:	00 
   1400062e1:	00 00                	add    BYTE PTR [rax],al
   1400062e3:	00 d8                	add    al,bl
   1400062e5:	67 00 00             	add    BYTE PTR [eax],al
   1400062e8:	c4 01 00 00          	(bad)
   1400062ec:	2e 69 64 61 74 61 24 	cs imul esp,DWORD PTR [rcx+riz*2+0x74],0x362461
   1400062f3:	36 00 
   1400062f5:	00 00                	add    BYTE PTR [rax],al
   1400062f7:	00 00                	add    BYTE PTR [rax],al
   1400062f9:	70 00                	jo     0x1400062fb
   1400062fb:	00 20                	add    BYTE PTR [rax],ah
   1400062fd:	00 00                	add    BYTE PTR [rax],al
   1400062ff:	00 2e                	add    BYTE PTR [rsi],ch
   140006301:	64 61                	fs (bad)
   140006303:	74 61                	je     0x140006366
   140006305:	00 00                	add    BYTE PTR [rax],al
   140006307:	00 20                	add    BYTE PTR [rax],ah
   140006309:	70 00                	jo     0x14000630b
   14000630b:	00 80 04 00 00 2e    	add    BYTE PTR [rax+0x2e000004],al
   140006311:	62 73 73 00 00       	(bad)
   140006316:	00 00                	add    BYTE PTR [rax],al
   140006318:	00 80 00 00 ac 02    	add    BYTE PTR [rax+0x2ac0000],al
   14000631e:	00 00                	add    BYTE PTR [rax],al
   140006320:	2e 70 64             	cs jo  0x140006387
   140006323:	61                   	(bad)
   140006324:	74 61                	je     0x140006387
   140006326:	00 00                	add    BYTE PTR [rax],al
   140006328:	00 90 00 00 60 00    	add    BYTE PTR [rax+0x600000],dl
   14000632e:	00 00                	add    BYTE PTR [rax],al
   140006330:	2e 72 73             	cs jb  0x1400063a6
   140006333:	72 63                	jb     0x140006398
   140006335:	24 30                	and    al,0x30
   140006337:	31 00                	xor    DWORD PTR [rax],eax
   140006339:	00 00                	add    BYTE PTR [rax],al
   14000633b:	00 60 90             	add    BYTE PTR [rax-0x70],ah
   14000633e:	00 00                	add    BYTE PTR [rax],al
   140006340:	80 01 00             	add    BYTE PTR [rcx],0x0
   140006343:	00 2e                	add    BYTE PTR [rsi],ch
   140006345:	72 73                	jb     0x1400063ba
   140006347:	72 63                	jb     0x1400063ac
   140006349:	24 30                	and    al,0x30
   14000634b:	32 00                	xor    al,BYTE PTR [rax]
   14000634d:	00 00                	add    BYTE PTR [rax],al
   14000634f:	00 01                	add    BYTE PTR [rcx],al
   140006351:	04 01                	add    al,0x1
   140006353:	00 04 02             	add    BYTE PTR [rdx+rax*1],al
   140006356:	00 00                	add    BYTE PTR [rax],al
   140006358:	21 04 02             	and    DWORD PTR [rdx+rax*1],eax
   14000635b:	00 04 74             	add    BYTE PTR [rsp+rsi*2],al
   14000635e:	00 00                	add    BYTE PTR [rax],al
   140006360:	20 11                	and    BYTE PTR [rcx],dl
   140006362:	00 00                	add    BYTE PTR [rax],al
   140006364:	2c 11                	sub    al,0x11
   140006366:	00 00                	add    BYTE PTR [rax],al
   140006368:	50                   	push   rax
   140006369:	63 00                	movsxd eax,DWORD PTR [rax]
   14000636b:	00 21                	add    BYTE PTR [rcx],ah
   14000636d:	00 00                	add    BYTE PTR [rax],al
   14000636f:	00 20                	add    BYTE PTR [rax],ah
   140006371:	11 00                	adc    DWORD PTR [rax],eax
   140006373:	00 2c 11             	add    BYTE PTR [rcx+rdx*1],ch
   140006376:	00 00                	add    BYTE PTR [rax],al
   140006378:	50                   	push   rax
   140006379:	63 00                	movsxd eax,DWORD PTR [rax]
   14000637b:	00 01                	add    BYTE PTR [rcx],al
   14000637d:	06                   	(bad)
   14000637e:	02 00                	add    al,BYTE PTR [rax]
   140006380:	06                   	(bad)
   140006381:	32 02                	xor    al,BYTE PTR [rdx]
   140006383:	30 01                	xor    BYTE PTR [rcx],al
   140006385:	0a 04 00             	or     al,BYTE PTR [rax+rax*1]
   140006388:	0a 64 08 00          	or     ah,BYTE PTR [rax+rcx*1+0x0]
   14000638c:	0a 32                	or     dh,BYTE PTR [rdx]
   14000638e:	06                   	(bad)
   14000638f:	70 21                	jo     0x1400063b2
   140006391:	05 02 00 05 34       	add    eax,0x34050002
   140006396:	06                   	(bad)
   140006397:	00 e0                	add    al,ah
   140006399:	11 00                	adc    DWORD PTR [rax],eax
   14000639b:	00 27                	add    BYTE PTR [rdi],ah
   14000639d:	12 00                	adc    al,BYTE PTR [rax]
   14000639f:	00 84 63 00 00 21 00 	add    BYTE PTR [rbx+riz*2+0x210000],al
   1400063a6:	02 00                	add    al,BYTE PTR [rax]
   1400063a8:	00 34 06             	add    BYTE PTR [rsi+rax*1],dh
   1400063ab:	00 e0                	add    al,ah
   1400063ad:	11 00                	adc    DWORD PTR [rax],eax
   1400063af:	00 27                	add    BYTE PTR [rdi],ah
   1400063b1:	12 00                	adc    al,BYTE PTR [rax]
   1400063b3:	00 84 63 00 00 01 15 	add    BYTE PTR [rbx+riz*2+0x15010000],al
   1400063ba:	08 00                	or     BYTE PTR [rax],al
   1400063bc:	15 74 0f 00 15       	adc    eax,0x15000f74
   1400063c1:	64 0e                	fs (bad)
   1400063c3:	00 15 34 0c 00 15    	add    BYTE PTR [rip+0x15000c34],dl        # 0x155006ffd
   1400063c9:	92                   	xchg   edx,eax
   1400063ca:	11 e0                	adc    eax,esp
   1400063cc:	01 05 02 00 05 34    	add    DWORD PTR [rip+0x34050002],eax        # 0x1740563d4
   1400063d2:	02 00                	add    al,BYTE PTR [rax]
   1400063d4:	01 0f                	add    DWORD PTR [rdi],ecx
   1400063d6:	06                   	(bad)
   1400063d7:	00 0f                	add    BYTE PTR [rdi],cl
   1400063d9:	64 08 00             	or     BYTE PTR fs:[rax],al
   1400063dc:	0f 34                	sysenter
   1400063de:	07                   	(bad)
   1400063df:	00 0f                	add    BYTE PTR [rdi],cl
   1400063e1:	32 0b                	xor    cl,BYTE PTR [rbx]
   1400063e3:	70 01                	jo     0x1400063e6
   1400063e5:	0a 04 00             	or     al,BYTE PTR [rax+rax*1]
   1400063e8:	0a 34 06             	or     dh,BYTE PTR [rsi+rax*1]
   1400063eb:	00 0a                	add    BYTE PTR [rdx],cl
   1400063ed:	32 06                	xor    al,BYTE PTR [rsi]
   1400063ef:	70 01                	jo     0x1400063f2
   1400063f1:	07                   	(bad)
   1400063f2:	01 00                	add    DWORD PTR [rax],eax
   1400063f4:	07                   	(bad)
   1400063f5:	82                   	(bad)
   1400063f6:	00 00                	add    BYTE PTR [rax],al
   1400063f8:	01 15 09 00 15 54    	add    DWORD PTR [rip+0x54150009],edx        # 0x194156407
   1400063fe:	57                   	push   rdi
   1400063ff:	00 15 34 56 00 15    	add    BYTE PTR [rip+0x15005634],dl        # 0x15500ba39
   140006405:	01 50 00             	add    DWORD PTR [rax+0x0],edx
   140006408:	0e                   	(bad)
   140006409:	e0 0c                	loopne 0x140006417
   14000640b:	70 0b                	jo     0x140006418
   14000640d:	60                   	(bad)
   14000640e:	00 00                	add    BYTE PTR [rax],al
   140006410:	01 1b                	add    DWORD PTR [rbx],ebx
   140006412:	0b 00                	or     eax,DWORD PTR [rax]
   140006414:	1b 64 2c 00          	sbb    esp,DWORD PTR [rsp+rbp*1+0x0]
   140006418:	1b 54 2b 00          	sbb    edx,DWORD PTR [rbx+rbp*1+0x0]
   14000641c:	1b 34 2a             	sbb    esi,DWORD PTR [rdx+rbp*1]
   14000641f:	00 1b                	add    BYTE PTR [rbx],bl
   140006421:	01 26                	add    DWORD PTR [rsi],esp
   140006423:	00 14 f0             	add    BYTE PTR [rax+rsi*8],dl
   140006426:	12 e0                	adc    ah,al
   140006428:	10 70 00             	adc    BYTE PTR [rax+0x0],dh
   14000642b:	00 01                	add    BYTE PTR [rcx],al
   14000642d:	09 03                	or     DWORD PTR [rbx],eax
   14000642f:	00 09                	add    BYTE PTR [rcx],cl
   140006431:	01 48 00             	add    DWORD PTR [rax+0x0],ecx
   140006434:	02 30                	add    dh,BYTE PTR [rax]
   140006436:	00 00                	add    BYTE PTR [rax],al
   140006438:	01 1f                	add    DWORD PTR [rdi],ebx
   14000643a:	0d 00 1f 64 50       	or     eax,0x50641f00
   14000643f:	00 1f                	add    BYTE PTR [rdi],bl
   140006441:	54                   	push   rsp
   140006442:	4f 00 1f             	rex.WRXB add BYTE PTR [r15],r11b
   140006445:	34 4e                	xor    al,0x4e
   140006447:	00 1f                	add    BYTE PTR [rdi],bl
   140006449:	01 48 00             	add    DWORD PTR [rax+0x0],ecx
   14000644c:	18 f0                	sbb    al,dh
   14000644e:	16                   	(bad)
   14000644f:	e0 14                	loopne 0x140006465
   140006451:	d0 12                	rcl    BYTE PTR [rdx],1
   140006453:	c0 10 70             	rcl    BYTE PTR [rax],0x70
   140006456:	00 00                	add    BYTE PTR [rax],al
   140006458:	01 07                	add    DWORD PTR [rdi],eax
   14000645a:	03 00                	add    eax,DWORD PTR [rax]
   14000645c:	07                   	(bad)
   14000645d:	62 03 70 02 30       	(bad)
   140006462:	00 00                	add    BYTE PTR [rax],al
   140006464:	21 0a                	and    DWORD PTR [rdx],ecx
   140006466:	04 00                	add    al,0x0
   140006468:	0a 64 06 00          	or     ah,BYTE PTR [rsi+rax*1+0x0]
   14000646c:	05 54 0c 00 f0       	add    eax,0xf0000c54
   140006471:	1b 00                	sbb    eax,DWORD PTR [rax]
   140006473:	00 f2                	add    dl,dh
   140006475:	1c 00                	sbb    al,0x0
   140006477:	00 58 64             	add    BYTE PTR [rax+0x64],bl
   14000647a:	00 00                	add    BYTE PTR [rax],al
   14000647c:	01 16                	add    DWORD PTR [rsi],edx
   14000647e:	04 00                	add    al,0x0
   140006480:	16                   	(bad)
   140006481:	01 17                	add    DWORD PTR [rdi],edx
   140006483:	00 0f                	add    BYTE PTR [rdi],cl
   140006485:	c0 0d 50 21 04 02 00 	ror    BYTE PTR [rip+0x2042150],0x0        # 0x1420485dc
   14000648c:	04 e4                	add    al,0xe4
   14000648e:	13 00                	adc    eax,DWORD PTR [rax]
   140006490:	c0 1d 00 00 f3 1d 00 	rcr    BYTE PTR [rip+0x1df30000],0x0        # 0x15df36497
   140006497:	00 7c 64 00          	add    BYTE PTR [rsp+riz*2+0x0],bh
   14000649b:	00 21                	add    BYTE PTR [rcx],ah
   14000649d:	1a 06                	sbb    al,BYTE PTR [rsi]
   14000649f:	00 1a                	add    BYTE PTR [rdx],bl
   1400064a1:	f4                   	hlt
   1400064a2:	12 00                	adc    al,BYTE PTR [rax]
   1400064a4:	0f d4 14 00          	paddq  mm2,QWORD PTR [rax+rax*1]
   1400064a8:	04 34                	add    al,0x34
   1400064aa:	1b 00                	sbb    eax,DWORD PTR [rax]
   1400064ac:	f3 1d 00 00 0f 1e    	repz sbb eax,0x1e0f0000
   1400064b2:	00 00                	add    BYTE PTR [rax],al
   1400064b4:	88 64 00 00          	mov    BYTE PTR [rax+rax*1+0x0],ah
   1400064b8:	21 04 02             	and    DWORD PTR [rdx+rax*1],eax
   1400064bb:	00 04 74             	add    BYTE PTR [rsp+rsi*2],al
   1400064be:	15 00 0f 1e 00       	adc    eax,0x1e0f00
   1400064c3:	00 86 1e 00 00 9c    	add    BYTE PTR [rsi-0x63ffffe2],al
   1400064c9:	64 00 00             	add    BYTE PTR fs:[rax],al
   1400064cc:	21 08                	and    DWORD PTR [rax],ecx
   1400064ce:	02 00                	add    al,BYTE PTR [rax]
   1400064d0:	08 64 16 00          	or     BYTE PTR [rsi+rdx*1+0x0],ah
   1400064d4:	86 1e                	xchg   BYTE PTR [rsi],bl
   1400064d6:	00 00                	add    BYTE PTR [rax],al
   1400064d8:	d4                   	(bad)
   1400064d9:	1e                   	(bad)
   1400064da:	00 00                	add    BYTE PTR [rax],al
   1400064dc:	b8 64 00 00 21       	mov    eax,0x21000064
   1400064e1:	00 00                	add    BYTE PTR [rax],al
   1400064e3:	00 86 1e 00 00 d4    	add    BYTE PTR [rsi-0x2bffffe2],al
   1400064e9:	1e                   	(bad)
   1400064ea:	00 00                	add    BYTE PTR [rax],al
   1400064ec:	b8 64 00 00 21       	mov    eax,0x21000064
   1400064f1:	00 00                	add    BYTE PTR [rax],al
   1400064f3:	00 0f                	add    BYTE PTR [rdi],cl
   1400064f5:	1e                   	(bad)
   1400064f6:	00 00                	add    BYTE PTR [rax],al
   1400064f8:	86 1e                	xchg   BYTE PTR [rsi],bl
   1400064fa:	00 00                	add    BYTE PTR [rax],al
   1400064fc:	9c                   	pushf
   1400064fd:	64 00 00             	add    BYTE PTR fs:[rax],al
   140006500:	21 00                	and    DWORD PTR [rax],eax
   140006502:	00 00                	add    BYTE PTR [rax],al
   140006504:	f3 1d 00 00 0f 1e    	repz sbb eax,0x1e0f0000
   14000650a:	00 00                	add    BYTE PTR [rax],al
   14000650c:	88 64 00 00          	mov    BYTE PTR [rax+rax*1+0x0],ah
   140006510:	21 00                	and    DWORD PTR [rax],eax
   140006512:	00 00                	add    BYTE PTR [rax],al
   140006514:	c0 1d 00 00 f3 1d 00 	rcr    BYTE PTR [rip+0x1df30000],0x0        # 0x15df3651b
   14000651b:	00 7c 64 00          	add    BYTE PTR [rsp+riz*2+0x0],bh
   14000651f:	00 01                	add    BYTE PTR [rcx],al
   140006521:	06                   	(bad)
   140006522:	02 00                	add    al,BYTE PTR [rax]
   140006524:	06                   	(bad)
   140006525:	52                   	push   rdx
   140006526:	02 30                	add    dh,BYTE PTR [rax]
   140006528:	01 28                	add    DWORD PTR [rax],ebp
   14000652a:	08 00                	or     BYTE PTR [rax],al
   14000652c:	28 01                	sub    BYTE PTR [rcx],al
   14000652e:	33 00                	xor    eax,DWORD PTR [rax]
   140006530:	19 f0                	sbb    eax,esi
   140006532:	17                   	(bad)
   140006533:	e0 15                	loopne 0x14000654a
   140006535:	d0 13                	rcl    BYTE PTR [rbx],1
   140006537:	c0 11 60             	rcl    BYTE PTR [rcx],0x60
   14000653a:	10 50 21             	adc    BYTE PTR [rax+0x21],dl
   14000653d:	12 04 00             	adc    al,BYTE PTR [rax+rax*1]
   140006540:	12 74 32 00          	adc    dh,BYTE PTR [rdx+rsi*1+0x0]
   140006544:	08 34 3a             	or     BYTE PTR [rdx+rdi*1],dh
   140006547:	00 20                	add    BYTE PTR [rax],ah
   140006549:	23 00                	and    eax,DWORD PTR [rax]
   14000654b:	00 88 23 00 00 28    	add    BYTE PTR [rax+0x28000023],cl
   140006551:	65 00 00             	add    BYTE PTR gs:[rax],al
   140006554:	21 00                	and    DWORD PTR [rax],eax
   140006556:	04 00                	add    al,0x0
   140006558:	00 74 32 00          	add    BYTE PTR [rdx+rsi*1+0x0],dh
   14000655c:	00 34 3a             	add    BYTE PTR [rdx+rdi*1],dh
   14000655f:	00 20                	add    BYTE PTR [rax],ah
   140006561:	23 00                	and    eax,DWORD PTR [rax]
   140006563:	00 88 23 00 00 28    	add    BYTE PTR [rax+0x28000023],cl
   140006569:	65 00 00             	add    BYTE PTR gs:[rax],al
   14000656c:	21 00                	and    DWORD PTR [rax],eax
   14000656e:	00 00                	add    BYTE PTR [rax],al
   140006570:	20 23                	and    BYTE PTR [rbx],ah
   140006572:	00 00                	add    BYTE PTR [rax],al
   140006574:	88 23                	mov    BYTE PTR [rbx],ah
   140006576:	00 00                	add    BYTE PTR [rax],al
   140006578:	28 65 00             	sub    BYTE PTR [rbp+0x0],ah
   14000657b:	00 01                	add    BYTE PTR [rcx],al
   14000657d:	6c                   	ins    BYTE PTR es:[rdi],dx
   14000657e:	08 00                	or     BYTE PTR [rax],al
   140006580:	6c                   	ins    BYTE PTR es:[rdi],dx
   140006581:	54                   	push   rsp
   140006582:	08 00                	or     BYTE PTR [rax],al
   140006584:	0f 64 0a             	pcmpgtb mm1,QWORD PTR [rdx]
   140006587:	00 0f                	add    BYTE PTR [rdi],cl
   140006589:	34 09                	xor    al,0x9
   14000658b:	00 0f                	add    BYTE PTR [rdi],cl
   14000658d:	52                   	push   rdx
   14000658e:	0b 70 01             	or     esi,DWORD PTR [rax+0x1]
   140006591:	1f                   	(bad)
   140006592:	09 00                	or     DWORD PTR [rax],eax
   140006594:	1f                   	(bad)
   140006595:	82                   	(bad)
   140006596:	1b f0                	sbb    esi,eax
   140006598:	19 e0                	sbb    eax,esp
   14000659a:	17                   	(bad)
   14000659b:	d0 15 c0 13 70 12    	rcl    BYTE PTR [rip+0x127013c0],1        # 0x152707961
   1400065a1:	60                   	(bad)
   1400065a2:	11 50 10             	adc    DWORD PTR [rax+0x10],edx
   1400065a5:	30 00                	xor    BYTE PTR [rax],al
   1400065a7:	00 01                	add    BYTE PTR [rcx],al
   1400065a9:	02 01                	add    al,BYTE PTR [rcx]
   1400065ab:	00 02                	add    BYTE PTR [rdx],al
   1400065ad:	30 00                	xor    BYTE PTR [rax],al
   1400065af:	00 21                	add    BYTE PTR [rcx],ah
   1400065b1:	0d 04 00 0d 74       	or     eax,0x740d0004
   1400065b6:	03 00                	add    eax,DWORD PTR [rax]
   1400065b8:	05 64 02 00 10       	add    eax,0x10000264
   1400065bd:	41 00 00             	add    BYTE PTR [r8],al
   1400065c0:	36 41 00 00          	ss add BYTE PTR [r8],al
   1400065c4:	a8 65                	test   al,0x65
   1400065c6:	00 00                	add    BYTE PTR [rax],al
   1400065c8:	21 00                	and    DWORD PTR [rax],eax
   1400065ca:	00 00                	add    BYTE PTR [rax],al
   1400065cc:	10 41 00             	adc    BYTE PTR [rcx+0x0],al
   1400065cf:	00 36                	add    BYTE PTR [rsi],dh
   1400065d1:	41 00 00             	add    BYTE PTR [r8],al
   1400065d4:	a8 65                	test   al,0x65
   1400065d6:	00 00                	add    BYTE PTR [rax],al
   1400065d8:	01 0f                	add    DWORD PTR [rdi],ecx
   1400065da:	06                   	(bad)
   1400065db:	00 0f                	add    BYTE PTR [rdi],cl
   1400065dd:	64 07                	fs (bad)
   1400065df:	00 0f                	add    BYTE PTR [rdi],cl
   1400065e1:	34 06                	xor    al,0x6
   1400065e3:	00 0f                	add    BYTE PTR [rdi],cl
   1400065e5:	32 0b                	xor    cl,BYTE PTR [rbx]
   1400065e7:	70 01                	jo     0x1400065ea
   1400065e9:	1c 0c                	sbb    al,0xc
   1400065eb:	00 1c 74             	add    BYTE PTR [rsp+rsi*2],bl
   1400065ee:	08 00                	or     BYTE PTR [rax],al
   1400065f0:	1c 64                	sbb    al,0x64
   1400065f2:	07                   	(bad)
   1400065f3:	00 1c 54             	add    BYTE PTR [rsp+rdx*2],bl
   1400065f6:	06                   	(bad)
   1400065f7:	00 1c 34             	add    BYTE PTR [rsp+rsi*1],bl
   1400065fa:	05 00 1c f0 1a       	add    eax,0x1af01c00
   1400065ff:	e0 18                	loopne 0x140006619
   140006601:	d0 16                	rcl    BYTE PTR [rsi],1
   140006603:	c0 01 0d             	rol    BYTE PTR [rcx],0xd
   140006606:	01 00                	add    DWORD PTR [rax],eax
   140006608:	0d 42 00 00 01       	or     eax,0x1000042
   14000660d:	18 01                	sbb    BYTE PTR [rcx],al
   14000660f:	00 18                	add    BYTE PTR [rax],bl
   140006611:	c2 00 00             	ret    0x0
   140006614:	01 0e                	add    DWORD PTR [rsi],ecx
   140006616:	01 00                	add    DWORD PTR [rax],eax
   140006618:	0e                   	(bad)
   140006619:	62                   	(bad)
   14000661a:	00 00                	add    BYTE PTR [rax],al
   14000661c:	01 12                	add    DWORD PTR [rdx],edx
   14000661e:	01 00                	add    DWORD PTR [rax],eax
   140006620:	12 62 00             	adc    ah,BYTE PTR [rdx+0x0]
   140006623:	00 01                	add    BYTE PTR [rcx],al
   140006625:	1b 02                	sbb    eax,DWORD PTR [rdx]
   140006627:	00 1b                	add    BYTE PTR [rbx],bl
   140006629:	01 15 00 01 13 01    	add    DWORD PTR [rip+0x1130100],edx        # 0x14113672f
   14000662f:	00 13                	add    BYTE PTR [rbx],dl
   140006631:	82                   	(bad)
   140006632:	00 00                	add    BYTE PTR [rax],al
   140006634:	01 09                	add    DWORD PTR [rcx],ecx
   140006636:	01 00                	add    DWORD PTR [rax],eax
   140006638:	09 22                	or     DWORD PTR [rdx],esp
   14000663a:	00 00                	add    BYTE PTR [rax],al
   14000663c:	01 09                	add    DWORD PTR [rcx],ecx
   14000663e:	01 00                	add    DWORD PTR [rax],eax
   140006640:	09 82 00 00 01 08    	or     DWORD PTR [rdx+0x8010000],eax
   140006646:	01 00                	add    DWORD PTR [rax],eax
   140006648:	08 a2 00 00 01 0c    	or     BYTE PTR [rdx+0xc010000],ah
   14000664e:	01 00                	add    DWORD PTR [rax],eax
   140006650:	0c 22                	or     al,0x22
   140006652:	00 00                	add    BYTE PTR [rax],al
   140006654:	01 04 01             	add    DWORD PTR [rcx+rax*1],eax
   140006657:	00 04 a2             	add    BYTE PTR [rdx+riz*4],al
	...
   140006662:	00 00                	add    BYTE PTR [rax],al
   140006664:	ff                   	(bad)
   140006665:	ff                   	(bad)
   140006666:	ff                   	(bad)
   140006667:	ff 00                	inc    DWORD PTR [rax]
   140006669:	00 00                	add    BYTE PTR [rax],al
   14000666b:	00 b0 66 00 00 01    	add    BYTE PTR [rax+0x1000066],dh
   140006671:	00 00                	add    BYTE PTR [rax],al
   140006673:	00 04 00             	add    BYTE PTR [rax+rax*1],al
   140006676:	00 00                	add    BYTE PTR [rax],al
   140006678:	04 00                	add    al,0x0
   14000667a:	00 00                	add    BYTE PTR [rax],al
   14000667c:	88 66 00             	mov    BYTE PTR [rsi+0x0],ah
   14000667f:	00 98 66 00 00 a8    	add    BYTE PTR [rax-0x57ffff9a],bl
   140006685:	66 00 00             	data16 add BYTE PTR [rax],al
   140006688:	00 10                	add    BYTE PTR [rax],dl
   14000668a:	00 00                	add    BYTE PTR [rax],al
   14000668c:	a0 10 00 00 e0 11 00 	movabs al,ds:0xe0000011e0000010
   140006693:	00 e0 
   140006695:	13 00                	adc    eax,DWORD PTR [rax]
   140006697:	00 bd 66 00 00 c2    	add    BYTE PTR [rbp-0x3dffff9a],bh
   14000669d:	66 00 00             	data16 add BYTE PTR [rax],al
   1400066a0:	c9                   	leave
   1400066a1:	66 00 00             	data16 add BYTE PTR [rax],al
   1400066a4:	d1 66 00             	shl    DWORD PTR [rsi+0x0],1
   1400066a7:	00 00                	add    BYTE PTR [rax],al
   1400066a9:	00 01                	add    BYTE PTR [rcx],al
   1400066ab:	00 02                	add    BYTE PTR [rdx],al
   1400066ad:	00 03                	add    BYTE PTR [rbx],al
   1400066af:	00 50 50             	add    BYTE PTR [rax+0x50],dl
   1400066b2:	36 34 53             	ss xor al,0x53
   1400066b5:	74 75                	je     0x14000672c
   1400066b7:	62 2e 65 78 65       	(bad)
   1400066bc:	00 66 72             	add    BYTE PTR [rsi+0x72],ah
   1400066bf:	65 65 00 6d 61       	gs add BYTE PTR gs:[rbp+0x61],ch
   1400066c4:	6c                   	ins    BYTE PTR es:[rdi],dx
   1400066c5:	6c                   	ins    BYTE PTR es:[rdi],dx
   1400066c6:	6f                   	outs   dx,DWORD PTR ds:[rsi]
   1400066c7:	63 00                	movsxd eax,DWORD PTR [rax]
   1400066c9:	72 65                	jb     0x140006730
   1400066cb:	61                   	(bad)
   1400066cc:	6c                   	ins    BYTE PTR es:[rdi],dx
   1400066cd:	6c                   	ins    BYTE PTR es:[rdi],dx
   1400066ce:	6f                   	outs   dx,DWORD PTR ds:[rsi]
   1400066cf:	63 00                	movsxd eax,DWORD PTR [rax]
   1400066d1:	73 74                	jae    0x140006747
   1400066d3:	72 6e                	jb     0x140006743
   1400066d5:	63 6d 70             	movsxd ebp,DWORD PTR [rbp+0x70]
   1400066d8:	00 00                	add    BYTE PTR [rax],al
   1400066da:	00 00                	add    BYTE PTR [rax],al
   1400066dc:	18 67 00             	sbb    BYTE PTR [rdi+0x0],ah
	...
   1400066e7:	00 e2                	add    dl,ah
   1400066e9:	68 00 00 00 60       	push   0x60000000
   1400066ee:	00 00                	add    BYTE PTR [rax],al
   1400066f0:	80 67 00 00          	and    BYTE PTR [rdi+0x0],0x0
	...
   1400066fc:	90                   	nop
   1400066fd:	69 00 00 68 60 00    	imul   eax,DWORD PTR [rax],0x606800
	...
   140006717:	00 d8                	add    al,bl
   140006719:	67 00 00             	add    BYTE PTR [eax],al
   14000671c:	00 00                	add    BYTE PTR [rax],al
   14000671e:	00 00                	add    BYTE PTR [rax],al
   140006720:	e4 67                	in     al,0x67
   140006722:	00 00                	add    BYTE PTR [rax],al
   140006724:	00 00                	add    BYTE PTR [rax],al
   140006726:	00 00                	add    BYTE PTR [rax],al
   140006728:	f0 67 00 00          	lock add BYTE PTR [eax],al
   14000672c:	00 00                	add    BYTE PTR [rax],al
   14000672e:	00 00                	add    BYTE PTR [rax],al
   140006730:	fc                   	cld
   140006731:	67 00 00             	add    BYTE PTR [eax],al
   140006734:	00 00                	add    BYTE PTR [rax],al
   140006736:	00 00                	add    BYTE PTR [rax],al
   140006738:	0e                   	(bad)
   140006739:	68 00 00 00 00       	push   0x0
   14000673e:	00 00                	add    BYTE PTR [rax],al
   140006740:	2a 68 00             	sub    ch,BYTE PTR [rax+0x0]
   140006743:	00 00                	add    BYTE PTR [rax],al
   140006745:	00 00                	add    BYTE PTR [rax],al
   140006747:	00 48 68             	add    BYTE PTR [rax+0x68],cl
   14000674a:	00 00                	add    BYTE PTR [rax],al
   14000674c:	00 00                	add    BYTE PTR [rax],al
   14000674e:	00 00                	add    BYTE PTR [rax],al
   140006750:	58                   	pop    rax
   140006751:	68 00 00 00 00       	push   0x0
   140006756:	00 00                	add    BYTE PTR [rax],al
   140006758:	72 68                	jb     0x1400067c2
   14000675a:	00 00                	add    BYTE PTR [rax],al
   14000675c:	00 00                	add    BYTE PTR [rax],al
   14000675e:	00 00                	add    BYTE PTR [rax],al
   140006760:	8a 68 00             	mov    ch,BYTE PTR [rax+0x0]
   140006763:	00 00                	add    BYTE PTR [rax],al
   140006765:	00 00                	add    BYTE PTR [rax],al
   140006767:	00 a8 68 00 00 00    	add    BYTE PTR [rax+0x68],ch
   14000676d:	00 00                	add    BYTE PTR [rax],al
   14000676f:	00 c6                	add    dh,al
   140006771:	68 00 00 00 00       	push   0x0
	...
   14000677e:	00 00                	add    BYTE PTR [rax],al
   140006780:	f0 68 00 00 00 00    	lock push 0x0
   140006786:	00 00                	add    BYTE PTR [rax],al
   140006788:	fa                   	cli
   140006789:	68 00 00 00 00       	push   0x0
   14000678e:	00 00                	add    BYTE PTR [rax],al
   140006790:	0a 69 00             	or     ch,BYTE PTR [rcx+0x0]
   140006793:	00 00                	add    BYTE PTR [rax],al
   140006795:	00 00                	add    BYTE PTR [rax],al
   140006797:	00 1a                	add    BYTE PTR [rdx],bl
   140006799:	69 00 00 00 00 00    	imul   eax,DWORD PTR [rax],0x0
   14000679f:	00 2c 69             	add    BYTE PTR [rcx+rbp*2],ch
   1400067a2:	00 00                	add    BYTE PTR [rax],al
   1400067a4:	00 00                	add    BYTE PTR [rax],al
   1400067a6:	00 00                	add    BYTE PTR [rax],al
   1400067a8:	3c 69                	cmp    al,0x69
   1400067aa:	00 00                	add    BYTE PTR [rax],al
   1400067ac:	00 00                	add    BYTE PTR [rax],al
   1400067ae:	00 00                	add    BYTE PTR [rax],al
   1400067b0:	4c 69 00 00 00 00 00 	imul   r8,QWORD PTR [rax],0x0
   1400067b7:	00 66 69             	add    BYTE PTR [rsi+0x69],ah
   1400067ba:	00 00                	add    BYTE PTR [rax],al
   1400067bc:	00 00                	add    BYTE PTR [rax],al
   1400067be:	00 00                	add    BYTE PTR [rax],al
   1400067c0:	74 69                	je     0x14000682b
   1400067c2:	00 00                	add    BYTE PTR [rax],al
   1400067c4:	00 00                	add    BYTE PTR [rax],al
   1400067c6:	00 00                	add    BYTE PTR [rax],al
   1400067c8:	82                   	(bad)
   1400067c9:	69 00 00 00 00 00    	imul   eax,DWORD PTR [rax],0x0
	...
   1400067d7:	00 6c 03 48          	add    BYTE PTR [rbx+rax*1+0x48],ch
   1400067db:	65 61                	gs (bad)
   1400067dd:	70 41                	jo     0x140006820
   1400067df:	6c                   	ins    BYTE PTR es:[rdi],dx
   1400067e0:	6c                   	ins    BYTE PTR es:[rdi],dx
   1400067e1:	6f                   	outs   dx,DWORD PTR ds:[rsi]
   1400067e2:	63 00                	movsxd eax,DWORD PTR [rax]
   1400067e4:	70 03                	jo     0x1400067e9
   1400067e6:	48                   	rex.W
   1400067e7:	65 61                	gs (bad)
   1400067e9:	70 46                	jo     0x140006831
   1400067eb:	72 65                	jb     0x140006852
   1400067ed:	65 00 00             	add    BYTE PTR gs:[rax],al
   1400067f0:	75 03                	jne    0x1400067f5
   1400067f2:	48                   	rex.W
   1400067f3:	65 61                	gs (bad)
   1400067f5:	70 53                	jo     0x14000684a
   1400067f7:	69 7a 65 00 00 d4 02 	imul   edi,DWORD PTR [rdx+0x65],0x2d40000
   1400067fe:	47                   	rex.RXB
   1400067ff:	65 74 50             	gs je  0x140006852
   140006802:	72 6f                	jb     0x140006873
   140006804:	63 65 73             	movsxd esp,DWORD PTR [rbp+0x73]
   140006807:	73 48                	jae    0x140006851
   140006809:	65 61                	gs (bad)
   14000680b:	70 00                	jo     0x14000680d
   14000680d:	00 e6                	add    dh,ah
   14000680f:	05 55 6e 68 61       	add    eax,0x61686e55
   140006814:	6e                   	outs   dx,BYTE PTR ds:[rsi]
   140006815:	64 6c                	fs ins BYTE PTR es:[rdi],dx
   140006817:	65 64 45 78 63       	gs fs rex.RB js 0x14000687f
   14000681c:	65 70 74             	gs jo  0x140006893
   14000681f:	69 6f 6e 46 69 6c 74 	imul   ebp,DWORD PTR [rdi+0x6e],0x746c6946
   140006826:	65 72 00             	gs jb  0x140006829
   140006829:	00 a4 05 53 65 74 55 	add    BYTE PTR [rbp+rax*1+0x55746553],ah
   140006830:	6e                   	outs   dx,BYTE PTR ds:[rsi]
   140006831:	68 61 6e 64 6c       	push   0x6c646e61
   140006836:	65 64 45 78 63       	gs fs rex.RB js 0x14000689e
   14000683b:	65 70 74             	gs jo  0x1400068b2
   14000683e:	69 6f 6e 46 69 6c 74 	imul   ebp,DWORD PTR [rdi+0x6e],0x746c6946
   140006845:	65 72 00             	gs jb  0x140006848
   140006848:	7d 02                	jge    0x14000684c
   14000684a:	47                   	rex.RXB
   14000684b:	65 74 4c             	gs je  0x14000689a
   14000684e:	61                   	(bad)
   14000684f:	73 74                	jae    0x1400068c5
   140006851:	45 72 72             	rex.RB jb 0x1400068c6
   140006854:	6f                   	outs   dx,DWORD PTR ds:[rsi]
   140006855:	72 00                	jb     0x140006857
   140006857:	00 d8                	add    al,bl
   140006859:	04 52                	add    al,0x52
   14000685b:	65 6c                	gs ins BYTE PTR es:[rdi],dx
   14000685d:	65 61                	gs (bad)
   14000685f:	73 65                	jae    0x1400068c6
   140006861:	53                   	push   rbx
   140006862:	52                   	push   rdx
   140006863:	57                   	push   rdi
   140006864:	4c 6f                	rex.WR outs dx,DWORD PTR ds:[rsi]
   140006866:	63 6b 45             	movsxd ebp,DWORD PTR [rbx+0x45]
   140006869:	78 63                	js     0x1400068ce
   14000686b:	6c                   	ins    BYTE PTR es:[rdi],dx
   14000686c:	75 73                	jne    0x1400068e1
   14000686e:	69 76 65 00 d9 04 52 	imul   esi,DWORD PTR [rsi+0x65],0x5204d900
   140006875:	65 6c                	gs ins BYTE PTR es:[rdi],dx
   140006877:	65 61                	gs (bad)
   140006879:	73 65                	jae    0x1400068e0
   14000687b:	53                   	push   rbx
   14000687c:	52                   	push   rdx
   14000687d:	57                   	push   rdi
   14000687e:	4c 6f                	rex.WR outs dx,DWORD PTR ds:[rsi]
   140006880:	63 6b 53             	movsxd ebp,DWORD PTR [rbx+0x53]
   140006883:	68 61 72 65 64       	push   0x64657261
   140006888:	00 00                	add    BYTE PTR [rax],al
   14000688a:	dd 05 54 72 79 41    	fld    QWORD PTR [rip+0x41797254]        # 0x18179dae4
   140006890:	63 71 75             	movsxd esi,DWORD PTR [rcx+0x75]
   140006893:	69 72 65 53 52 57 4c 	imul   esi,DWORD PTR [rdx+0x65],0x4c575253
   14000689a:	6f                   	outs   dx,DWORD PTR ds:[rsi]
   14000689b:	63 6b 45             	movsxd ebp,DWORD PTR [rbx+0x45]
   14000689e:	78 63                	js     0x140006903
   1400068a0:	6c                   	ins    BYTE PTR es:[rdi],dx
   1400068a1:	75 73                	jne    0x140006916
   1400068a3:	69 76 65 00 00 38 05 	imul   esi,DWORD PTR [rsi+0x65],0x5380000
   1400068aa:	53                   	push   rbx
   1400068ab:	65 74 43             	gs je  0x1400068f1
   1400068ae:	72 69                	jb     0x140006919
   1400068b0:	74 69                	je     0x14000691b
   1400068b2:	63 61 6c             	movsxd esp,DWORD PTR [rcx+0x6c]
   1400068b5:	53                   	push   rbx
   1400068b6:	65 63 74 69 6f       	movsxd esi,DWORD PTR gs:[rcx+rbp*2+0x6f]
   1400068bb:	6e                   	outs   dx,BYTE PTR ds:[rsi]
   1400068bc:	53                   	push   rbx
   1400068bd:	70 69                	jo     0x140006928
   1400068bf:	6e                   	outs   dx,BYTE PTR ds:[rsi]
   1400068c0:	43 6f                	rex.XB outs dx,DWORD PTR ds:[rsi]
   1400068c2:	75 6e                	jne    0x140006932
   1400068c4:	74 00                	je     0x1400068c6
   1400068c6:	18 06                	sbb    BYTE PTR [rsi],al
   1400068c8:	57                   	push   rdi
   1400068c9:	61                   	(bad)
   1400068ca:	6b 65 41 6c          	imul   esp,DWORD PTR [rbp+0x41],0x6c
   1400068ce:	6c                   	ins    BYTE PTR es:[rdi],dx
   1400068cf:	43 6f                	rex.XB outs dx,DWORD PTR ds:[rsi]
   1400068d1:	6e                   	outs   dx,BYTE PTR ds:[rsi]
   1400068d2:	64 69 74 69 6f 6e 56 	imul   esi,DWORD PTR fs:[rcx+rbp*2+0x6f],0x7261566e
   1400068d9:	61 72 
   1400068db:	69 61 62 6c 65 00 00 	imul   esp,DWORD PTR [rcx+0x62],0x656c
   1400068e2:	4b                   	rex.WXB
   1400068e3:	45 52                	rex.RB push r10
   1400068e5:	4e                   	rex.WRX
   1400068e6:	45                   	rex.RB
   1400068e7:	4c 33 32             	xor    r14,QWORD PTR [rdx]
   1400068ea:	2e 64 6c             	cs fs ins BYTE PTR es:[rdi],dx
   1400068ed:	6c                   	ins    BYTE PTR es:[rdi],dx
   1400068ee:	00 00                	add    BYTE PTR [rax],al
   1400068f0:	79 01                	jns    0x1400068f3
   1400068f2:	47                   	rex.RXB
   1400068f3:	65 74 4d             	gs je  0x140006943
   1400068f6:	65 6e                	outs   dx,BYTE PTR gs:[rsi]
   1400068f8:	75 00                	jne    0x1400068fa
   1400068fa:	c8 01 47 65          	enter  0x4701,0x65
   1400068fe:	74 53                	je     0x140006953
   140006900:	79 73                	jns    0x140006975
   140006902:	74 65                	je     0x140006969
   140006904:	6d                   	ins    DWORD PTR es:[rdi],dx
   140006905:	4d                   	rex.WRB
   140006906:	65 6e                	outs   dx,BYTE PTR gs:[rsi]
   140006908:	75 00                	jne    0x14000690a
   14000690a:	43 00 43 68          	rex.XB add BYTE PTR [r11+0x68],al
   14000690e:	65 63 6b 4d          	movsxd ebp,DWORD PTR gs:[rbx+0x4d]
   140006912:	65 6e                	outs   dx,BYTE PTR gs:[rsi]
   140006914:	75 49                	jne    0x14000695f
   140006916:	74 65                	je     0x14000697d
   140006918:	6d                   	ins    DWORD PTR es:[rdi],dx
   140006919:	00 e9                	add    cl,ch
   14000691b:	00 45 6e             	add    BYTE PTR [rbp+0x6e],al
   14000691e:	61                   	(bad)
   14000691f:	62 6c 65 4d 65       	(bad)
   140006924:	6e                   	outs   dx,BYTE PTR ds:[rsi]
   140006925:	75 49                	jne    0x140006970
   140006927:	74 65                	je     0x14000698e
   140006929:	6d                   	ins    DWORD PTR es:[rdi],dx
   14000692a:	00 00                	add    BYTE PTR [rax],al
   14000692c:	80 01 47             	add    BYTE PTR [rcx],0x47
   14000692f:	65 74 4d             	gs je  0x14000697f
   140006932:	65 6e                	outs   dx,BYTE PTR gs:[rsi]
   140006934:	75 49                	jne    0x14000697f
   140006936:	74 65                	je     0x14000699d
   140006938:	6d                   	ins    DWORD PTR es:[rdi],dx
   140006939:	49                   	rex.WB
   14000693a:	44 00 d0             	add    al,r10b
   14000693d:	03 55 70             	add    edx,DWORD PTR [rbp+0x70]
   140006940:	64 61                	fs (bad)
   140006942:	74 65                	je     0x1400069a9
   140006944:	57                   	push   rdi
   140006945:	69 6e 64 6f 77 00 00 	imul   ebp,DWORD PTR [rsi+0x64],0x776f
   14000694c:	e1 01                	loope  0x14000694f
   14000694e:	47                   	rex.RXB
   14000694f:	65 74 57             	gs je  0x1400069a9
   140006952:	69 6e 64 6f 77 43 6f 	imul   ebp,DWORD PTR [rsi+0x64],0x6f43776f
   140006959:	6e                   	outs   dx,BYTE PTR ds:[rsi]
   14000695a:	74 65                	je     0x1400069c1
   14000695c:	78 74                	js     0x1400069d2
   14000695e:	48                   	rex.W
   14000695f:	65 6c                	gs ins BYTE PTR es:[rdi],dx
   140006961:	70 49                	jo     0x1400069ac
   140006963:	64 00 00             	add    BYTE PTR fs:[rax],al
   140006966:	84 02                	test   BYTE PTR [rdx],al
   140006968:	4d                   	rex.WRB
   140006969:	65 73 73             	gs jae 0x1400069df
   14000696c:	61                   	(bad)
   14000696d:	67 65 42 6f          	rex.X outs dx,DWORD PTR gs:[esi]
   140006971:	78 41                	js     0x1400069b4
   140006973:	00 8b 02 4d 65 73    	add    BYTE PTR [rbx+0x73654d02],cl
   140006979:	73 61                	jae    0x1400069dc
   14000697b:	67 65 42 6f          	rex.X outs dx,DWORD PTR gs:[esi]
   14000697f:	78 57                	js     0x1400069d8
   140006981:	00 83 02 4d 65 73    	add    BYTE PTR [rbx+0x73654d02],al
   140006987:	73 61                	jae    0x1400069ea
   140006989:	67 65 42             	addr32 gs rex.X
   14000698c:	65 65 70 00          	gs gs jo 0x140006990
   140006990:	55                   	push   rbp
   140006991:	53                   	push   rbx
   140006992:	45 52                	rex.RB push r10
   140006994:	33 32                	xor    esi,DWORD PTR [rdx]
   140006996:	2e 64 6c             	cs fs ins BYTE PTR es:[rdi],dx
   140006999:	6c                   	ins    BYTE PTR es:[rdi],dx
	...

Disassembly of section .data:

0000000140007000 <.data>:
	...

Disassembly of section .pdata:

0000000140008000 <.pdata>:
   140008000:	00 10                	add    BYTE PTR [rax],dl
   140008002:	00 00                	add    BYTE PTR [rax],al
   140008004:	23 10                	and    edx,DWORD PTR [rax]
   140008006:	00 00                	add    BYTE PTR [rax],al
   140008008:	7c 63                	jl     0x14000806d
   14000800a:	00 00                	add    BYTE PTR [rax],al
   14000800c:	30 10                	xor    BYTE PTR [rax],dl
   14000800e:	00 00                	add    BYTE PTR [rax],al
   140008010:	98                   	cwde
   140008011:	10 00                	adc    BYTE PTR [rax],al
   140008013:	00 cc                	add    ah,cl
   140008015:	63 00                	movsxd eax,DWORD PTR [rax]
   140008017:	00 a0 10 00 00 c6    	add    BYTE PTR [rax-0x39fffff0],ah
   14000801d:	10 00                	adc    BYTE PTR [rax],al
   14000801f:	00 7c 63 00          	add    BYTE PTR [rbx+riz*2+0x0],bh
   140008023:	00 20                	add    BYTE PTR [rax],ah
   140008025:	11 00                	adc    DWORD PTR [rax],eax
   140008027:	00 2c 11             	add    BYTE PTR [rcx+rdx*1],ch
   14000802a:	00 00                	add    BYTE PTR [rax],al
   14000802c:	50                   	push   rax
   14000802d:	63 00                	movsxd eax,DWORD PTR [rax]
   14000802f:	00 2c 11             	add    BYTE PTR [rcx+rdx*1],ch
   140008032:	00 00                	add    BYTE PTR [rax],al
   140008034:	3f                   	(bad)
   140008035:	11 00                	adc    DWORD PTR [rax],eax
   140008037:	00 58 63             	add    BYTE PTR [rax+0x63],bl
   14000803a:	00 00                	add    BYTE PTR [rax],al
   14000803c:	3f                   	(bad)
   14000803d:	11 00                	adc    DWORD PTR [rax],eax
   14000803f:	00 47 11             	add    BYTE PTR [rdi+0x11],al
   140008042:	00 00                	add    BYTE PTR [rax],al
   140008044:	6c                   	ins    BYTE PTR es:[rdi],dx
   140008045:	63 00                	movsxd eax,DWORD PTR [rax]
   140008047:	00 50 11             	add    BYTE PTR [rax+0x11],dl
   14000804a:	00 00                	add    BYTE PTR [rax],al
   14000804c:	dd 11                	fst    QWORD PTR [rcx]
   14000804e:	00 00                	add    BYTE PTR [rax],al
   140008050:	d4                   	(bad)
   140008051:	63 00                	movsxd eax,DWORD PTR [rax]
   140008053:	00 e0                	add    al,ah
   140008055:	11 00                	adc    DWORD PTR [rax],eax
   140008057:	00 27                	add    BYTE PTR [rdi],ah
   140008059:	12 00                	adc    al,BYTE PTR [rax]
   14000805b:	00 84 63 00 00 27 12 	add    BYTE PTR [rbx+riz*2+0x12270000],al
   140008062:	00 00                	add    BYTE PTR [rax],al
   140008064:	5b                   	pop    rbx
   140008065:	12 00                	adc    al,BYTE PTR [rax]
   140008067:	00 90 63 00 00 5b    	add    BYTE PTR [rax+0x5b000063],dl
   14000806d:	12 00                	adc    al,BYTE PTR [rax]
   14000806f:	00 f6                	add    dh,dh
   140008071:	12 00                	adc    al,BYTE PTR [rax]
   140008073:	00 a4 63 00 00 00 13 	add    BYTE PTR [rbx+riz*2+0x13000000],ah
   14000807a:	00 00                	add    BYTE PTR [rax],al
   14000807c:	d5 13 00 00          	{rex2 0x13} add BYTE PTR [r24],al
   140008080:	b8 63 00 00 60       	mov    eax,0x60000063
   140008085:	14 00                	adc    al,0x0
   140008087:	00 a7 14 00 00 e4    	add    BYTE PTR [rdi-0x1bffffec],ah
   14000808d:	63 00                	movsxd eax,DWORD PTR [rax]
   14000808f:	00 b0 14 00 00 f3    	add    BYTE PTR [rax-0xcffffec],dh
   140008095:	14 00                	adc    al,0x0
   140008097:	00 e4                	add    ah,ah
   140008099:	63 00                	movsxd eax,DWORD PTR [rax]
   14000809b:	00 50 16             	add    BYTE PTR [rax+0x16],dl
   14000809e:	00 00                	add    BYTE PTR [rax],al
   1400080a0:	2b 17                	sub    edx,DWORD PTR [rdi]
   1400080a2:	00 00                	add    BYTE PTR [rax],al
   1400080a4:	10 64 00 00          	adc    BYTE PTR [rax+rax*1+0x0],ah
   1400080a8:	30 17                	xor    BYTE PTR [rdi],dl
   1400080aa:	00 00                	add    BYTE PTR [rax],al
   1400080ac:	ad                   	lods   eax,DWORD PTR ds:[rsi]
   1400080ad:	18 00                	sbb    BYTE PTR [rax],al
   1400080af:	00 38                	add    BYTE PTR [rax],bh
   1400080b1:	64 00 00             	add    BYTE PTR fs:[rax],al
   1400080b4:	b0 18                	mov    al,0x18
   1400080b6:	00 00                	add    BYTE PTR [rax],al
   1400080b8:	fb                   	sti
   1400080b9:	18 00                	sbb    BYTE PTR [rax],al
   1400080bb:	00 f0                	add    al,dh
   1400080bd:	63 00                	movsxd eax,DWORD PTR [rax]
   1400080bf:	00 00                	add    BYTE PTR [rax],al
   1400080c1:	19 00                	sbb    DWORD PTR [rax],eax
   1400080c3:	00 c0                	add    al,al
   1400080c5:	19 00                	sbb    DWORD PTR [rax],eax
   1400080c7:	00 2c 64             	add    BYTE PTR [rsp+riz*2],ch
   1400080ca:	00 00                	add    BYTE PTR [rax],al
   1400080cc:	c0 19 00             	rcr    BYTE PTR [rcx],0x0
   1400080cf:	00 ec                	add    ah,ch
   1400080d1:	1b 00                	sbb    eax,DWORD PTR [rax]
   1400080d3:	00 f8                	add    al,bh
   1400080d5:	63 00                	movsxd eax,DWORD PTR [rax]
   1400080d7:	00 f0                	add    al,dh
   1400080d9:	1b 00                	sbb    eax,DWORD PTR [rax]
   1400080db:	00 f2                	add    dl,dh
   1400080dd:	1c 00                	sbb    al,0x0
   1400080df:	00 58 64             	add    BYTE PTR [rax+0x64],bl
   1400080e2:	00 00                	add    BYTE PTR [rax],al
   1400080e4:	f2 1c 00             	repnz sbb al,0x0
   1400080e7:	00 c0                	add    al,al
   1400080e9:	1d 00 00 64 64       	sbb    eax,0x64640000
   1400080ee:	00 00                	add    BYTE PTR [rax],al
   1400080f0:	c0 1d 00 00 f3 1d 00 	rcr    BYTE PTR [rip+0x1df30000],0x0        # 0x15df380f7
   1400080f7:	00 7c 64 00          	add    BYTE PTR [rsp+riz*2+0x0],bh
   1400080fb:	00 f3                	add    bl,dh
   1400080fd:	1d 00 00 0f 1e       	sbb    eax,0x1e0f0000
   140008102:	00 00                	add    BYTE PTR [rax],al
   140008104:	88 64 00 00          	mov    BYTE PTR [rax+rax*1+0x0],ah
   140008108:	0f 1e 00             	nop    DWORD PTR [rax]
   14000810b:	00 86 1e 00 00 9c    	add    BYTE PTR [rsi-0x63ffffe2],al
   140008111:	64 00 00             	add    BYTE PTR fs:[rax],al
   140008114:	86 1e                	xchg   BYTE PTR [rsi],bl
   140008116:	00 00                	add    BYTE PTR [rax],al
   140008118:	d4                   	(bad)
   140008119:	1e                   	(bad)
   14000811a:	00 00                	add    BYTE PTR [rax],al
   14000811c:	b8 64 00 00 d4       	mov    eax,0xd4000064
   140008121:	1e                   	(bad)
   140008122:	00 00                	add    BYTE PTR [rax],al
   140008124:	69 22 00 00 cc 64    	imul   esp,DWORD PTR [rdx],0x64cc0000
   14000812a:	00 00                	add    BYTE PTR [rax],al
   14000812c:	69 22 00 00 71 22    	imul   esp,DWORD PTR [rdx],0x22710000
   140008132:	00 00                	add    BYTE PTR [rax],al
   140008134:	e0 64                	loopne 0x14000819a
   140008136:	00 00                	add    BYTE PTR [rax],al
   140008138:	71 22                	jno    0x14000815c
   14000813a:	00 00                	add    BYTE PTR [rax],al
   14000813c:	89 22                	mov    DWORD PTR [rdx],esp
   14000813e:	00 00                	add    BYTE PTR [rax],al
   140008140:	f0 64 00 00          	lock add BYTE PTR fs:[rax],al
   140008144:	89 22                	mov    DWORD PTR [rdx],esp
   140008146:	00 00                	add    BYTE PTR [rax],al
   140008148:	91                   	xchg   ecx,eax
   140008149:	22 00                	and    al,BYTE PTR [rax]
   14000814b:	00 00                	add    BYTE PTR [rax],al
   14000814d:	65 00 00             	add    BYTE PTR gs:[rax],al
   140008150:	91                   	xchg   ecx,eax
   140008151:	22 00                	and    al,BYTE PTR [rax]
   140008153:	00 9c 22 00 00 10 65 	add    BYTE PTR [rdx+riz*1+0x65100000],bl
   14000815a:	00 00                	add    BYTE PTR [rax],al
   14000815c:	a0 22 00 00 ea 22 00 	movabs al,ds:0x20000022ea000022
   140008163:	00 20 
   140008165:	65 00 00             	add    BYTE PTR gs:[rax],al
   140008168:	f0 22 00             	lock and al,BYTE PTR [rax]
   14000816b:	00 14 23             	add    BYTE PTR [rbx+riz*1],dl
   14000816e:	00 00                	add    BYTE PTR [rax],al
   140008170:	7c 63                	jl     0x1400081d5
   140008172:	00 00                	add    BYTE PTR [rax],al
   140008174:	20 23                	and    BYTE PTR [rbx],ah
   140008176:	00 00                	add    BYTE PTR [rax],al
   140008178:	88 23                	mov    BYTE PTR [rbx],ah
   14000817a:	00 00                	add    BYTE PTR [rax],al
   14000817c:	28 65 00             	sub    BYTE PTR [rbp+0x0],ah
   14000817f:	00 88 23 00 00 60    	add    BYTE PTR [rax+0x60000023],cl
   140008185:	24 00                	and    al,0x0
   140008187:	00 3c 65 00 00 60 24 	add    BYTE PTR [riz*2+0x24600000],bh
   14000818e:	00 00                	add    BYTE PTR [rax],al
   140008190:	ad                   	lods   eax,DWORD PTR ds:[rsi]
   140008191:	26 00 00             	es add BYTE PTR [rax],al
   140008194:	54                   	push   rsp
   140008195:	65 00 00             	add    BYTE PTR gs:[rax],al
   140008198:	ad                   	lods   eax,DWORD PTR ds:[rsi]
   140008199:	26 00 00             	es add BYTE PTR [rax],al
   14000819c:	c4                   	(bad)
   14000819d:	26 00 00             	es add BYTE PTR [rax],al
   1400081a0:	6c                   	ins    BYTE PTR es:[rdi],dx
   1400081a1:	65 00 00             	add    BYTE PTR gs:[rax],al
   1400081a4:	d0 26                	shl    BYTE PTR [rsi],1
   1400081a6:	00 00                	add    BYTE PTR [rax],al
   1400081a8:	32 28                	xor    ch,BYTE PTR [rax]
   1400081aa:	00 00                	add    BYTE PTR [rax],al
   1400081ac:	7c 65                	jl     0x140008213
   1400081ae:	00 00                	add    BYTE PTR [rax],al
   1400081b0:	40 28 00             	rex sub BYTE PTR [rax],al
   1400081b3:	00 c8                	add    al,cl
   1400081b5:	35 00 00 90 65       	xor    eax,0x65900000
   1400081ba:	00 00                	add    BYTE PTR [rax],al
   1400081bc:	d0 35 00 00 70 36    	shl    BYTE PTR [rip+0x36700000],1        # 0x1767081c2
   1400081c2:	00 00                	add    BYTE PTR [rax],al
   1400081c4:	d8 65 00             	fsub   DWORD PTR [rbp+0x0]
   1400081c7:	00 70 36             	add    BYTE PTR [rax+0x36],dh
   1400081ca:	00 00                	add    BYTE PTR [rax],al
   1400081cc:	94                   	xchg   esp,eax
   1400081cd:	3a 00                	cmp    al,BYTE PTR [rax]
   1400081cf:	00 90 65 00 00 a0    	add    BYTE PTR [rax-0x5fffff9b],dl
   1400081d5:	3a 00                	cmp    al,BYTE PTR [rax]
   1400081d7:	00 df                	add    bh,bl
   1400081d9:	3a 00                	cmp    al,BYTE PTR [rax]
   1400081db:	00 e4                	add    ah,ah
   1400081dd:	63 00                	movsxd eax,DWORD PTR [rax]
   1400081df:	00 00                	add    BYTE PTR [rax],al
   1400081e1:	3b 00                	cmp    eax,DWORD PTR [rax]
   1400081e3:	00 10                	add    BYTE PTR [rax],dl
   1400081e5:	41 00 00             	add    BYTE PTR [r8],al
   1400081e8:	e8 65 00 00 10       	call   0x150008252
   1400081ed:	41 00 00             	add    BYTE PTR [r8],al
   1400081f0:	36 41 00 00          	ss add BYTE PTR [r8],al
   1400081f4:	a8 65                	test   al,0x65
   1400081f6:	00 00                	add    BYTE PTR [rax],al
   1400081f8:	36 41 00 00          	ss add BYTE PTR [r8],al
   1400081fc:	be 41 00 00 b0       	mov    esi,0xb0000041
   140008201:	65 00 00             	add    BYTE PTR gs:[rax],al
   140008204:	be 41 00 00 c0       	mov    esi,0xc0000041
   140008209:	41 00 00             	add    BYTE PTR [r8],al
   14000820c:	c8 65 00 00          	enter  0x65,0x0
   140008210:	10 47 00             	adc    BYTE PTR [rdi+0x0],al
   140008213:	00 76 47             	add    BYTE PTR [rsi+0x47],dh
   140008216:	00 00                	add    BYTE PTR [rax],al
   140008218:	e4 63                	in     al,0x63
   14000821a:	00 00                	add    BYTE PTR [rax],al
   14000821c:	30 48 00             	xor    BYTE PTR [rax+0x0],cl
   14000821f:	00 c4                	add    ah,al
   140008221:	48 00 00             	rex.W add BYTE PTR [rax],al
   140008224:	04 66                	add    al,0x66
   140008226:	00 00                	add    BYTE PTR [rax],al
   140008228:	d0 48 00             	ror    BYTE PTR [rax+0x0],1
   14000822b:	00 f7                	add    bh,dh
   14000822d:	49 00 00             	rex.WB add BYTE PTR [r8],al
   140008230:	0c 66                	or     al,0x66
   140008232:	00 00                	add    BYTE PTR [rax],al
   140008234:	00 4a 00             	add    BYTE PTR [rdx+0x0],cl
   140008237:	00 36                	add    BYTE PTR [rsi],dh
   140008239:	4a 00 00             	rex.WX add BYTE PTR [rax],al
   14000823c:	14 66                	adc    al,0x66
   14000823e:	00 00                	add    BYTE PTR [rax],al
   140008240:	40                   	rex
   140008241:	4a 00 00             	rex.WX add BYTE PTR [rax],al
   140008244:	cc                   	int3
   140008245:	4b 00 00             	rex.WXB add BYTE PTR [r8],al
   140008248:	24 66                	and    al,0x66
   14000824a:	00 00                	add    BYTE PTR [rax],al
   14000824c:	d0 4b 00             	ror    BYTE PTR [rbx+0x0],1
   14000824f:	00 6e 4c             	add    BYTE PTR [rsi+0x4c],ch
   140008252:	00 00                	add    BYTE PTR [rax],al
   140008254:	1c 66                	sbb    al,0x66
   140008256:	00 00                	add    BYTE PTR [rax],al
   140008258:	70 4c                	jo     0x1400082a6
   14000825a:	00 00                	add    BYTE PTR [rax],al
   14000825c:	5f                   	pop    rdi
   14000825d:	4d 00 00             	rex.WRB add BYTE PTR [r8],r8b
   140008260:	0c 66                	or     al,0x66
   140008262:	00 00                	add    BYTE PTR [rax],al
   140008264:	60                   	(bad)
   140008265:	4d 00 00             	rex.WRB add BYTE PTR [r8],r8b
   140008268:	eb 4d                	jmp    0x1400082b7
   14000826a:	00 00                	add    BYTE PTR [rax],al
   14000826c:	2c 66                	sub    al,0x66
   14000826e:	00 00                	add    BYTE PTR [rax],al
   140008270:	f0 4d 00 00          	lock rex.WRB add BYTE PTR [r8],r8b
   140008274:	6b 4e 00 00          	imul   ecx,DWORD PTR [rsi+0x0],0x0
   140008278:	3c 66                	cmp    al,0x66
   14000827a:	00 00                	add    BYTE PTR [rax],al
   14000827c:	70 4e                	jo     0x1400082cc
   14000827e:	00 00                	add    BYTE PTR [rax],al
   140008280:	b7 4e                	mov    bh,0x4e
   140008282:	00 00                	add    BYTE PTR [rax],al
   140008284:	4c                   	rex.WR
   140008285:	66 00 00             	data16 add BYTE PTR [rax],al
   140008288:	c0 4e 00 00          	ror    BYTE PTR [rsi+0x0],0x0
   14000828c:	43 50                	rex.XB push r8
   14000828e:	00 00                	add    BYTE PTR [rax],al
   140008290:	54                   	push   rsp
   140008291:	66 00 00             	data16 add BYTE PTR [rax],al
   140008294:	60                   	(bad)
   140008295:	50                   	push   rax
   140008296:	00 00                	add    BYTE PTR [rax],al
   140008298:	75 56                	jne    0x1400082f0
   14000829a:	00 00                	add    BYTE PTR [rax],al
   14000829c:	44                   	rex.R
   14000829d:	66 00 00             	data16 add BYTE PTR [rax],al
   1400082a0:	80 56 00 00          	adc    BYTE PTR [rsi+0x0],0x0
   1400082a4:	c0 56 00 00          	rcl    BYTE PTR [rsi+0x0],0x0
   1400082a8:	34 66                	xor    al,0x66
	...

Disassembly of section .rsrc:

0000000140009000 <.rsrc>:
	...
   14000900c:	00 00                	add    BYTE PTR [rax],al
   14000900e:	01 00                	add    DWORD PTR [rax],eax
   140009010:	18 00                	sbb    BYTE PTR [rax],al
   140009012:	00 00                	add    BYTE PTR [rax],al
   140009014:	18 00                	sbb    BYTE PTR [rax],al
   140009016:	00 80 00 00 00 00    	add    BYTE PTR [rax+0x0],al
	...
   140009024:	00 00                	add    BYTE PTR [rax],al
   140009026:	01 00                	add    DWORD PTR [rax],eax
   140009028:	01 00                	add    DWORD PTR [rax],eax
   14000902a:	00 00                	add    BYTE PTR [rax],al
   14000902c:	30 00                	xor    BYTE PTR [rax],al
   14000902e:	00 80 00 00 00 00    	add    BYTE PTR [rax+0x0],al
	...
   14000903c:	00 00                	add    BYTE PTR [rax],al
   14000903e:	01 00                	add    DWORD PTR [rax],eax
   140009040:	09 04 00             	or     DWORD PTR [rax+rax*1],eax
   140009043:	00 48 00             	add    BYTE PTR [rax+0x0],cl
   140009046:	00 00                	add    BYTE PTR [rax],al
   140009048:	60                   	(bad)
   140009049:	90                   	nop
   14000904a:	00 00                	add    BYTE PTR [rax],al
   14000904c:	7d 01                	jge    0x14000904f
	...
   14000905e:	00 00                	add    BYTE PTR [rax],al
   140009060:	3c 3f                	cmp    al,0x3f
   140009062:	78 6d                	js     0x1400090d1
   140009064:	6c                   	ins    BYTE PTR es:[rdi],dx
   140009065:	20 76 65             	and    BYTE PTR [rsi+0x65],dh
   140009068:	72 73                	jb     0x1400090dd
   14000906a:	69 6f 6e 3d 27 31 2e 	imul   ebp,DWORD PTR [rdi+0x6e],0x2e31273d
   140009071:	30 27                	xor    BYTE PTR [rdi],ah
   140009073:	20 65 6e             	and    BYTE PTR [rbp+0x6e],ah
   140009076:	63 6f 64             	movsxd ebp,DWORD PTR [rdi+0x64]
   140009079:	69 6e 67 3d 27 55 54 	imul   ebp,DWORD PTR [rsi+0x67],0x5455273d
   140009080:	46 2d 38 27 20 73    	rex.RX sub eax,0x73202738
   140009086:	74 61                	je     0x1400090e9
   140009088:	6e                   	outs   dx,BYTE PTR ds:[rsi]
   140009089:	64 61                	fs (bad)
   14000908b:	6c                   	ins    BYTE PTR es:[rdi],dx
   14000908c:	6f                   	outs   dx,DWORD PTR ds:[rsi]
   14000908d:	6e                   	outs   dx,BYTE PTR ds:[rsi]
   14000908e:	65 3d 27 79 65 73    	gs cmp eax,0x73657927
   140009094:	27                   	(bad)
   140009095:	3f                   	(bad)
   140009096:	3e 0d 0a 3c 61 73    	ds or  eax,0x73613c0a
   14000909c:	73 65                	jae    0x140009103
   14000909e:	6d                   	ins    DWORD PTR es:[rdi],dx
   14000909f:	62 6c 79 20 78       	(bad)
   1400090a4:	6d                   	ins    DWORD PTR es:[rdi],dx
   1400090a5:	6c                   	ins    BYTE PTR es:[rdi],dx
   1400090a6:	6e                   	outs   dx,BYTE PTR ds:[rsi]
   1400090a7:	73 3d                	jae    0x1400090e6
   1400090a9:	27                   	(bad)
   1400090aa:	75 72                	jne    0x14000911e
   1400090ac:	6e                   	outs   dx,BYTE PTR ds:[rsi]
   1400090ad:	3a 73 63             	cmp    dh,BYTE PTR [rbx+0x63]
   1400090b0:	68 65 6d 61 73       	push   0x73616d65
   1400090b5:	2d 6d 69 63 72       	sub    eax,0x7263696d
   1400090ba:	6f                   	outs   dx,DWORD PTR ds:[rsi]
   1400090bb:	73 6f                	jae    0x14000912c
   1400090bd:	66 74 2d             	data16 je 0x1400090ed
   1400090c0:	63 6f 6d             	movsxd ebp,DWORD PTR [rdi+0x6d]
   1400090c3:	3a 61 73             	cmp    ah,BYTE PTR [rcx+0x73]
   1400090c6:	6d                   	ins    DWORD PTR es:[rdi],dx
   1400090c7:	2e 76 31             	cs jbe 0x1400090fb
   1400090ca:	27                   	(bad)
   1400090cb:	20 6d 61             	and    BYTE PTR [rbp+0x61],ch
   1400090ce:	6e                   	outs   dx,BYTE PTR ds:[rsi]
   1400090cf:	69 66 65 73 74 56 65 	imul   esp,DWORD PTR [rsi+0x65],0x65567473
   1400090d6:	72 73                	jb     0x14000914b
   1400090d8:	69 6f 6e 3d 27 31 2e 	imul   ebp,DWORD PTR [rdi+0x6e],0x2e31273d
   1400090df:	30 27                	xor    BYTE PTR [rdi],ah
   1400090e1:	3e 0d 0a 20 20 3c    	ds or  eax,0x3c20200a
   1400090e7:	74 72                	je     0x14000915b
   1400090e9:	75 73                	jne    0x14000915e
   1400090eb:	74 49                	je     0x140009136
   1400090ed:	6e                   	outs   dx,BYTE PTR ds:[rsi]
   1400090ee:	66 6f                	outs   dx,WORD PTR ds:[rsi]
   1400090f0:	20 78 6d             	and    BYTE PTR [rax+0x6d],bh
   1400090f3:	6c                   	ins    BYTE PTR es:[rdi],dx
   1400090f4:	6e                   	outs   dx,BYTE PTR ds:[rsi]
   1400090f5:	73 3d                	jae    0x140009134
   1400090f7:	22 75 72             	and    dh,BYTE PTR [rbp+0x72]
   1400090fa:	6e                   	outs   dx,BYTE PTR ds:[rsi]
   1400090fb:	3a 73 63             	cmp    dh,BYTE PTR [rbx+0x63]
   1400090fe:	68 65 6d 61 73       	push   0x73616d65
   140009103:	2d 6d 69 63 72       	sub    eax,0x7263696d
   140009108:	6f                   	outs   dx,DWORD PTR ds:[rsi]
   140009109:	73 6f                	jae    0x14000917a
   14000910b:	66 74 2d             	data16 je 0x14000913b
   14000910e:	63 6f 6d             	movsxd ebp,DWORD PTR [rdi+0x6d]
   140009111:	3a 61 73             	cmp    ah,BYTE PTR [rcx+0x73]
   140009114:	6d                   	ins    DWORD PTR es:[rdi],dx
   140009115:	2e 76 33             	cs jbe 0x14000914b
   140009118:	22 3e                	and    bh,BYTE PTR [rsi]
   14000911a:	0d 0a 20 20 20       	or     eax,0x2020200a
   14000911f:	20 3c 73             	and    BYTE PTR [rbx+rsi*2],bh
   140009122:	65 63 75 72          	movsxd esi,DWORD PTR gs:[rbp+0x72]
   140009126:	69 74 79 3e 0d 0a 20 	imul   esi,DWORD PTR [rcx+rdi*2+0x3e],0x20200a0d
   14000912d:	20 
   14000912e:	20 20                	and    BYTE PTR [rax],ah
   140009130:	20 20                	and    BYTE PTR [rax],ah
   140009132:	3c 72                	cmp    al,0x72
   140009134:	65 71 75             	gs jno 0x1400091ac
   140009137:	65 73 74             	gs jae 0x1400091ae
   14000913a:	65 64 50             	gs fs push rax
   14000913d:	72 69                	jb     0x1400091a8
   14000913f:	76 69                	jbe    0x1400091aa
   140009141:	6c                   	ins    BYTE PTR es:[rdi],dx
   140009142:	65 67 65 73 3e       	gs addr32 gs jae 0x140009185
   140009147:	0d 0a 20 20 20       	or     eax,0x2020200a
   14000914c:	20 20                	and    BYTE PTR [rax],ah
   14000914e:	20 20                	and    BYTE PTR [rax],ah
   140009150:	20 3c 72             	and    BYTE PTR [rdx+rsi*2],bh
   140009153:	65 71 75             	gs jno 0x1400091cb
   140009156:	65 73 74             	gs jae 0x1400091cd
   140009159:	65 64 45 78 65       	gs fs rex.RB js 0x1400091c3
   14000915e:	63 75 74             	movsxd esi,DWORD PTR [rbp+0x74]
   140009161:	69 6f 6e 4c 65 76 65 	imul   ebp,DWORD PTR [rdi+0x6e],0x6576654c
   140009168:	6c                   	ins    BYTE PTR es:[rdi],dx
   140009169:	20 6c 65 76          	and    BYTE PTR [rbp+riz*2+0x76],ch
   14000916d:	65 6c                	gs ins BYTE PTR es:[rdi],dx
   14000916f:	3d 27 61 73 49       	cmp    eax,0x49736127
   140009174:	6e                   	outs   dx,BYTE PTR ds:[rsi]
   140009175:	76 6f                	jbe    0x1400091e6
   140009177:	6b 65 72 27          	imul   esp,DWORD PTR [rbp+0x72],0x27
   14000917b:	20 75 69             	and    BYTE PTR [rbp+0x69],dh
   14000917e:	41 63 63 65          	movsxd esp,DWORD PTR [r11+0x65]
   140009182:	73 73                	jae    0x1400091f7
   140009184:	3d 27 66 61 6c       	cmp    eax,0x6c616627
   140009189:	73 65                	jae    0x1400091f0
   14000918b:	27                   	(bad)
   14000918c:	20 2f                	and    BYTE PTR [rdi],ch
   14000918e:	3e 0d 0a 20 20 20    	ds or  eax,0x2020200a
   140009194:	20 20                	and    BYTE PTR [rax],ah
   140009196:	20 3c 2f             	and    BYTE PTR [rdi+rbp*1],bh
   140009199:	72 65                	jb     0x140009200
   14000919b:	71 75                	jno    0x140009212
   14000919d:	65 73 74             	gs jae 0x140009214
   1400091a0:	65 64 50             	gs fs push rax
   1400091a3:	72 69                	jb     0x14000920e
   1400091a5:	76 69                	jbe    0x140009210
   1400091a7:	6c                   	ins    BYTE PTR es:[rdi],dx
   1400091a8:	65 67 65 73 3e       	gs addr32 gs jae 0x1400091eb
   1400091ad:	0d 0a 20 20 20       	or     eax,0x2020200a
   1400091b2:	20 3c 2f             	and    BYTE PTR [rdi+rbp*1],bh
   1400091b5:	73 65                	jae    0x14000921c
   1400091b7:	63 75 72             	movsxd esi,DWORD PTR [rbp+0x72]
   1400091ba:	69 74 79 3e 0d 0a 20 	imul   esi,DWORD PTR [rcx+rdi*2+0x3e],0x20200a0d
   1400091c1:	20 
   1400091c2:	3c 2f                	cmp    al,0x2f
   1400091c4:	74 72                	je     0x140009238
   1400091c6:	75 73                	jne    0x14000923b
   1400091c8:	74 49                	je     0x140009213
   1400091ca:	6e                   	outs   dx,BYTE PTR ds:[rsi]
   1400091cb:	66 6f                	outs   dx,WORD PTR ds:[rsi]
   1400091cd:	3e 0d 0a 3c 2f 61    	ds or  eax,0x612f3c0a
   1400091d3:	73 73                	jae    0x140009248
   1400091d5:	65 6d                	gs ins DWORD PTR es:[rdi],dx
   1400091d7:	62 6c 79 3e 0d       	(bad)
   1400091dc:	0a 00                	or     al,BYTE PTR [rax]
	...

Disassembly of section .reloc:

000000014000a000 <.reloc>:
   14000a000:	00 60 00             	add    BYTE PTR [rax+0x0],ah
   14000a003:	00 10                	add    BYTE PTR [rax],dl
   14000a005:	00 00                	add    BYTE PTR [rax],al
   14000a007:	00 68 a1             	add    BYTE PTR [rax-0x5f],ch
   14000a00a:	70 a1                	jo     0x140009fad
   14000a00c:	78 a1                	js     0x140009faf
	...

Disassembly of section .ATOM:

000000014000b000 <.ATOM>:
   14000b000:	5d                   	pop    rbp
   14000b001:	00 00                	add    BYTE PTR [rax],al
   14000b003:	10 00                	adc    BYTE PTR [rax],al
   14000b005:	00 2c 00             	add    BYTE PTR [rax+rax*1],ch
   14000b008:	00 00                	add    BYTE PTR [rax],al
   14000b00a:	00 00                	add    BYTE PTR [rax],al
   14000b00c:	00 00                	add    BYTE PTR [rax],al
   14000b00e:	26 96                	es xchg esi,eax
   14000b010:	8e 70 00             	mov    ?,WORD PTR [rax+0x0]
   14000b013:	17                   	(bad)
   14000b014:	f7 ec                	imul   esp
   14000b016:	05 bb ea f4 ff       	add    eax,0xfff4eabb
   14000b01b:	94                   	xchg   esp,eax
   14000b01c:	01 2f                	add    DWORD PTR [rdi],ebp
   14000b01e:	44 ee                	rex.R out dx,al
   14000b020:	4e bd 0a 9c 06 4c 45 	rex.WRX movabs rbp,0x66df20454c069c0a
   14000b027:	20 df 66 
   14000b02a:	b2 9c                	mov    dl,0x9c
   14000b02c:	d3 86 45 c2 cb 67    	rol    DWORD PTR [rsi+0x67cbc245],cl
   14000b032:	5d                   	pop    rbp
   14000b033:	5d                   	pop    rbp
   14000b034:	a2 1a 20 94 be 6a 35 	movabs ds:0xdd7d356abe94201a,al
   14000b03b:	7d dd 
   14000b03d:	84 35 90 f9 f1 6c    	test   BYTE PTR [rip+0x6cf1f990],dh        # 0x1acf2a9d3
   14000b043:	58                   	pop    rax
   14000b044:	ec                   	in     al,dx
   14000b045:	ef                   	out    dx,eax
   14000b046:	5e                   	pop    rsi
   14000b047:	b3 63                	mov    bl,0x63
   14000b049:	3e 31 22             	ds xor DWORD PTR [rdx],esp
   14000b04c:	8b 42 ca             	mov    eax,DWORD PTR [rdx-0x36]
   14000b04f:	f4                   	hlt
   14000b050:	8c e2                	mov    edx,fs
   14000b052:	3b c4                	cmp    eax,esp
   14000b054:	b8 ff 38 0f 91       	mov    eax,0x910f38ff
   14000b059:	d3 df                	rcr    edi,cl
   14000b05b:	c2 fc 93             	ret    0x93fc
   14000b05e:	c4                   	(bad)
   14000b05f:	08 7f e4             	or     BYTE PTR [rdi-0x1c],bh
   14000b062:	77 78                	ja     0x14000b0dc
   14000b064:	37                   	(bad)
   14000b065:	75 44                	jne    0x14000b0ab
   14000b067:	7c 1a                	jl     0x14000b083
   14000b069:	9f                   	lahf
   14000b06a:	99                   	cdq
   14000b06b:	c3                   	ret
   14000b06c:	b2 6a                	mov    dl,0x6a
   14000b06e:	f5                   	cmc
   14000b06f:	53                   	push   rbx
   14000b070:	12 34 63             	adc    dh,BYTE PTR [rbx+riz*2]
   14000b073:	b1 4f                	mov    cl,0x4f
   14000b075:	0d 38 34 83 3f       	or     eax,0x3f833438
   14000b07a:	40 5b                	rex pop rbx
   14000b07c:	44 20 33             	and    BYTE PTR [rbx],r14b
   14000b07f:	77 b2                	ja     0x14000b033
   14000b081:	d5 ce 2f cb          	{rex2 0xce} comiss xmm9,xmm3
   14000b085:	63 a6 5a e7 99 4e    	movsxd esp,DWORD PTR [rsi+0x4e99e75a]
   14000b08b:	9e                   	sahf
   14000b08c:	03 ce                	add    ecx,esi
   14000b08e:	54                   	push   rsp
   14000b08f:	b5 bc                	mov    ch,0xbc
   14000b091:	b1 77                	mov    cl,0x77
   14000b093:	00 c7                	add    bh,al
   14000b095:	b0 98                	mov    al,0x98
   14000b097:	fe                   	(bad)
   14000b098:	b1 5d                	mov    cl,0x5d
   14000b09a:	22 e5                	and    ah,ch
   14000b09c:	7e 78                	jle    0x14000b116
   14000b09e:	96                   	xchg   esi,eax
   14000b09f:	30 4e 42             	xor    BYTE PTR [rsi+0x42],cl
   14000b0a2:	f9                   	stc
   14000b0a3:	7f 0b                	jg     0x14000b0b0
   14000b0a5:	8c 1b                	mov    WORD PTR [rbx],ds
   14000b0a7:	9a                   	(bad)
   14000b0a8:	7b 3a                	jnp    0x14000b0e4
   14000b0aa:	7d 58                	jge    0x14000b104
   14000b0ac:	e7 45                	out    0x45,eax
   14000b0ae:	6a 05                	push   0x5
   14000b0b0:	53                   	push   rbx
   14000b0b1:	6d                   	ins    DWORD PTR es:[rdi],dx
   14000b0b2:	09 ae 0e bd 68 30    	or     DWORD PTR [rsi+0x3068bd0e],ebp
   14000b0b8:	7c 2a                	jl     0x14000b0e4
   14000b0ba:	ae                   	scas   al,BYTE PTR es:[rdi]
   14000b0bb:	5d                   	pop    rbp
   14000b0bc:	ba f7 db 00 0b       	mov    edx,0xb00dbf7
   14000b0c1:	d6                   	(bad)
   14000b0c2:	92                   	xchg   edx,eax
   14000b0c3:	13 1d f5 8e 0a 32    	adc    ebx,DWORD PTR [rip+0x320a8ef5]        # 0x1720b3fbe
   14000b0c9:	2e 3c d1             	cs cmp al,0xd1
   14000b0cc:	78 0b                	js     0x14000b0d9
   14000b0ce:	56                   	push   rsi
   14000b0cf:	02 3c cc             	add    bh,BYTE PTR [rsp+rcx*8]
   14000b0d2:	66 a5                	movs   WORD PTR es:[rdi],WORD PTR ds:[rsi]
   14000b0d4:	ac                   	lods   al,BYTE PTR ds:[rsi]
   14000b0d5:	61                   	(bad)
   14000b0d6:	5e                   	pop    rsi
   14000b0d7:	c0 97 28 42 d1 f8 64 	rcl    BYTE PTR [rdi-0x72ebdd8],0x64
   14000b0de:	1b 5d 5d             	sbb    ebx,DWORD PTR [rbp+0x5d]
   14000b0e1:	33 b1 b7 79 86 0e    	xor    esi,DWORD PTR [rcx+0xe8679b7]
   14000b0e7:	9a                   	(bad)
   14000b0e8:	22 21                	and    ah,BYTE PTR [rcx]
   14000b0ea:	d6                   	(bad)
   14000b0eb:	84 9f 76 a5 44 19    	test   BYTE PTR [rdi+0x1944a576],bl
   14000b0f1:	41 63 3a             	movsxd edi,DWORD PTR [r10]
   14000b0f4:	fa                   	cli
   14000b0f5:	3a e2                	cmp    ah,dl
   14000b0f7:	61                   	(bad)
   14000b0f8:	9c                   	pushf
   14000b0f9:	1a 4d 99             	sbb    cl,BYTE PTR [rbp-0x67]
   14000b0fc:	95                   	xchg   ebp,eax
   14000b0fd:	f1                   	int1
   14000b0fe:	68 66 51 d8 3e       	push   0x3ed85166
   14000b103:	01 3b                	add    DWORD PTR [rbx],edi
   14000b105:	ed                   	in     eax,dx
   14000b106:	ab                   	stos   DWORD PTR es:[rdi],eax
   14000b107:	07                   	(bad)
   14000b108:	7c ff                	jl     0x14000b109
   14000b10a:	88 de                	mov    dh,bl
   14000b10c:	b6 d1                	mov    dh,0xd1
   14000b10e:	b7 44                	mov    bh,0x44
   14000b110:	72 a0                	jb     0x14000b0b2
   14000b112:	22 0c 84             	and    cl,BYTE PTR [rsp+rax*4]
   14000b115:	1a 33                	sbb    dh,BYTE PTR [rbx]
   14000b117:	b0 5e                	mov    al,0x5e
   14000b119:	3d 56 95 9b 45       	cmp    eax,0x459b9556
   14000b11e:	e7 27                	out    0x27,eax
   14000b120:	8f                   	(bad)
   14000b121:	b3 75                	mov    bl,0x75
   14000b123:	11 1f                	adc    DWORD PTR [rdi],ebx
   14000b125:	24 a4                	and    al,0xa4
   14000b127:	4c e9 0d e4 3b ea    	rex.WR jmp 0x12a3c953a
   14000b12d:	43 51                	rex.XB push r9
   14000b12f:	46 16                	rex.RX (bad)
   14000b131:	6e                   	outs   dx,BYTE PTR ds:[rsi]
   14000b132:	33 8e 90 79 5c 6d    	xor    ecx,DWORD PTR [rsi+0x6d5c7990]
   14000b138:	35 cc f4 b3 7a       	xor    eax,0x7ab3f4cc
   14000b13d:	0a 9d 93 e2 bc 0e    	or     bl,BYTE PTR [rbp+0xebce293]
   14000b143:	0c c2                	or     al,0xc2
   14000b145:	b7 f5                	mov    bh,0xf5
   14000b147:	9d                   	popf
   14000b148:	fd                   	std
   14000b149:	7b e8                	jnp    0x14000b133
   14000b14b:	a4                   	movs   BYTE PTR es:[rdi],BYTE PTR ds:[rsi]
   14000b14c:	d4                   	(bad)
   14000b14d:	b0 cc                	mov    al,0xcc
   14000b14f:	71 bc                	jno    0x14000b10d
   14000b151:	96                   	xchg   esi,eax
   14000b152:	b3 52                	mov    bl,0x52
   14000b154:	09 f2                	or     edx,esi
   14000b156:	d7                   	xlat   BYTE PTR ds:[rbx]
   14000b157:	b4 ed                	mov    ah,0xed
   14000b159:	b8 3f e4 0f fa       	mov    eax,0xfa0fe43f
   14000b15e:	57                   	push   rdi
   14000b15f:	34 a1                	xor    al,0xa1
   14000b161:	14 03                	adc    al,0x3
   14000b163:	fa                   	cli
   14000b164:	61                   	(bad)
   14000b165:	6b 17 fb             	imul   edx,DWORD PTR [rdi],0xfffffffb
   14000b168:	88 fc                	mov    ah,bh
   14000b16a:	53                   	push   rbx
   14000b16b:	7f d1                	jg     0x14000b13e
   14000b16d:	5d                   	pop    rbp
   14000b16e:	3a d7                	cmp    dl,bh
   14000b170:	bc ee 0a 88 48       	mov    esp,0x48880aee
   14000b175:	89 03                	mov    DWORD PTR [rbx],eax
   14000b177:	95                   	xchg   ebp,eax
   14000b178:	22 e9                	and    ch,cl
   14000b17a:	54                   	push   rsp
   14000b17b:	af                   	scas   eax,DWORD PTR es:[rdi]
   14000b17c:	c3                   	ret
   14000b17d:	d8 75 7a             	fdiv   DWORD PTR [rbp+0x7a]
   14000b180:	16                   	(bad)
   14000b181:	57                   	push   rdi
   14000b182:	77 c6                	ja     0x14000b14a
   14000b184:	56                   	push   rsi
   14000b185:	0f e8 c8             	psubsb mm1,mm0
   14000b188:	89 8b 97 a6 4d 86    	mov    DWORD PTR [rbx-0x79b25969],ecx
   14000b18e:	d8 b3 05 e7 38 fa    	fdiv   DWORD PTR [rbx-0x5c718fb]
   14000b194:	f9                   	stc
   14000b195:	5c                   	pop    rsp
   14000b196:	65 15 07 c4 b0 b4    	gs adc eax,0xb4b0c407
   14000b19c:	6b 49 61 8c          	imul   ecx,DWORD PTR [rcx+0x61],0xffffff8c
   14000b1a0:	38 0f                	cmp    BYTE PTR [rdi],cl
   14000b1a2:	e3 66                	jrcxz  0x14000b20a
   14000b1a4:	74 86                	je     0x14000b12c
   14000b1a6:	4d 05 c6 23 41 08    	rex.WRB add rax,0x84123c6
   14000b1ac:	6d                   	ins    DWORD PTR es:[rdi],dx
   14000b1ad:	f0 da 9c d6 ab b2 f0 	lock ficomp DWORD PTR [rsi+rdx*8+0xbf0b2ab]
   14000b1b4:	0b 
   14000b1b5:	10 29                	adc    BYTE PTR [rcx],ch
   14000b1b7:	78 4c                	js     0x14000b205
   14000b1b9:	fa                   	cli
   14000b1ba:	72 74                	jb     0x14000b230
   14000b1bc:	06                   	(bad)
   14000b1bd:	56                   	push   rsi
   14000b1be:	29 6a cd             	sub    DWORD PTR [rdx-0x33],ebp
   14000b1c1:	ea                   	(bad)
   14000b1c2:	ce                   	(bad)
   14000b1c3:	91                   	xchg   ecx,eax
   14000b1c4:	ae                   	scas   al,BYTE PTR es:[rdi]
   14000b1c5:	f1                   	int1
   14000b1c6:	b3 f0                	mov    bl,0xf0
   14000b1c8:	bc f7 8f f0 24       	mov    esp,0x24f08ff7
   14000b1cd:	9a                   	(bad)
   14000b1ce:	30 08                	xor    BYTE PTR [rax],cl
   14000b1d0:	f2 bf 89 f5 71 81    	repnz mov edi,0x8171f589
   14000b1d6:	fb                   	sti
   14000b1d7:	aa                   	stos   BYTE PTR es:[rdi],al
   14000b1d8:	c2 8a 9e             	ret    0x9e8a
   14000b1db:	6d                   	ins    DWORD PTR es:[rdi],dx
   14000b1dc:	d5 92 2c 70 43       	{rex2 0x92} cvttps2pi mm6,QWORD PTR [r16+0x43]
   14000b1e1:	0a 6f 8b             	or     ch,BYTE PTR [rdi-0x75]
   14000b1e4:	fa                   	cli
   14000b1e5:	b0 eb                	mov    al,0xeb
   14000b1e7:	99                   	cdq
   14000b1e8:	e6 1c                	out    0x1c,al
   14000b1ea:	12 70 60             	adc    dh,BYTE PTR [rax+0x60]
   14000b1ed:	4e                   	rex.WRX
   14000b1ee:	9b                   	fwait
   14000b1ef:	c3                   	ret
   14000b1f0:	52                   	push   rdx
   14000b1f1:	90                   	nop
   14000b1f2:	a0 23 91 52 24 bd ed 	movabs al,ds:0xb3aeedbd24529123
   14000b1f9:	ae b3 
   14000b1fb:	06                   	(bad)
   14000b1fc:	91                   	xchg   ecx,eax
   14000b1fd:	9a                   	(bad)
   14000b1fe:	30 2b                	xor    BYTE PTR [rbx],ch
   14000b200:	73 ac                	jae    0x14000b1ae
   14000b202:	59                   	pop    rcx
   14000b203:	d7                   	xlat   BYTE PTR ds:[rbx]
   14000b204:	22 8e e2 79 b0 a9    	and    cl,BYTE PTR [rsi-0x564f861e]
   14000b20a:	4b 71 0b             	rex.WXB jno 0x14000b218
   14000b20d:	67 f4                	addr32 hlt
   14000b20f:	e6 bb                	out    0xbb,al
   14000b211:	ea                   	(bad)
   14000b212:	71 80                	jno    0x14000b194
   14000b214:	cd 50                	int    0x50
   14000b216:	5b                   	pop    rbx
   14000b217:	29 d0                	sub    eax,edx
   14000b219:	12 5c c3 d6          	adc    bl,BYTE PTR [rbx+rax*8-0x2a]
   14000b21d:	b3 b6                	mov    bl,0xb6
   14000b21f:	4c 98                	rex.WR cdqe
   14000b221:	60                   	(bad)
   14000b222:	9c                   	pushf
   14000b223:	b1 18                	mov    cl,0x18
   14000b225:	9c                   	pushf
   14000b226:	cb                   	retf
   14000b227:	f8                   	clc
   14000b228:	b0 4a                	mov    al,0x4a
   14000b22a:	5d                   	pop    rbp
   14000b22b:	a2 35 93 df e9 af c3 	movabs ds:0x5b61c3afe9df9335,al
   14000b232:	61 5b 
   14000b234:	8a 8f 51 7e a1 8b    	mov    cl,BYTE PTR [rdi-0x745e81af]
   14000b23a:	47 83 de 4e          	rex.RXB sbb r14d,0x4e
   14000b23e:	6c                   	ins    BYTE PTR es:[rdi],dx
   14000b23f:	e5 0a                	in     eax,0xa
   14000b241:	54                   	push   rsp
   14000b242:	4d a1 04 f1 fa e3 ca 	rex.WRB movabs rax,ds:0x95f10dcae3faf104
   14000b249:	0d f1 95 
   14000b24c:	bb 2e 23 2e 60       	mov    ebx,0x602e232e
   14000b251:	78 c3                	js     0x14000b216
   14000b253:	73 2e                	jae    0x14000b283
   14000b255:	e5 bb                	in     eax,0xbb
   14000b257:	58                   	pop    rax
   14000b258:	74 9e                	je     0x14000b1f8
   14000b25a:	d6                   	(bad)
   14000b25b:	3e f7 8d f7 13 ea 26 	ds test DWORD PTR [rbp+0x26ea13f7],0xfb155db
   14000b262:	db 55 b1 0f 
   14000b266:	12 ba 3b da 67 98    	adc    bh,BYTE PTR [rdx-0x679825c5]
   14000b26c:	7f 19                	jg     0x14000b287
   14000b26e:	5e                   	pop    rsi
   14000b26f:	3d c9 f8 b3 0a       	cmp    eax,0xab3f8c9
   14000b274:	a5                   	movs   DWORD PTR es:[rdi],DWORD PTR ds:[rsi]
   14000b275:	dc 97 d6 74 49 30    	fcom   QWORD PTR [rdi+0x304974d6]
   14000b27b:	f5                   	cmc
   14000b27c:	80 bb 7e ac dc 48 93 	cmp    BYTE PTR [rbx+0x48dcac7e],0x93
   14000b283:	7b 93                	jnp    0x14000b218
   14000b285:	9a                   	(bad)
   14000b286:	ee                   	out    dx,al
   14000b287:	b4 9f                	mov    ah,0x9f
   14000b289:	0e                   	(bad)
   14000b28a:	12 68 32             	adc    ch,BYTE PTR [rax+0x32]
   14000b28d:	37                   	(bad)
   14000b28e:	c4                   	(bad)
   14000b28f:	00 eb                	add    bl,ch
   14000b291:	ee                   	out    dx,al
   14000b292:	e7 0d                	out    0xd,eax
   14000b294:	72 81                	jb     0x14000b217
   14000b296:	ca ca 37             	retf   0x37ca
   14000b299:	81 e0 cf 23 3e b4    	and    eax,0xb43e23cf
   14000b29f:	1a e5                	sbb    ah,ch
   14000b2a1:	05 74 da f5 0b       	add    eax,0xbf5da74
   14000b2a6:	be e1 9f b3 b0       	mov    esi,0xb0b39fe1
   14000b2ab:	9f                   	lahf
   14000b2ac:	20 b0 b3 64 98 89    	and    BYTE PTR [rax-0x76679b4d],dh
   14000b2b2:	92                   	xchg   edx,eax
   14000b2b3:	ec                   	in     al,dx
   14000b2b4:	23 04 1c             	and    eax,DWORD PTR [rsp+rbx*1]
   14000b2b7:	69 5a 51 ca 16 ff 58 	imul   ebx,DWORD PTR [rdx+0x51],0x58ff16ca
   14000b2be:	70 fc                	jo     0x14000b2bc
   14000b2c0:	0c b9                	or     al,0xb9
   14000b2c2:	44 89 0a             	mov    DWORD PTR [rdx],r9d
   14000b2c5:	88 4a 2f             	mov    BYTE PTR [rdx+0x2f],cl
   14000b2c8:	39 7c ac f7          	cmp    DWORD PTR [rsp+rbp*4-0x9],edi
   14000b2cc:	b7 52                	mov    bh,0x52
   14000b2ce:	5c                   	pop    rsp
   14000b2cf:	45 6c                	rex.RB ins BYTE PTR es:[rdi],dx
   14000b2d1:	db cf                	fcmovne st,st(7)
   14000b2d3:	8e 5a 0d             	mov    ds,WORD PTR [rdx+0xd]
   14000b2d6:	06                   	(bad)
   14000b2d7:	54                   	push   rsp
   14000b2d8:	8a f9                	mov    bh,cl
   14000b2da:	d1 0a                	ror    DWORD PTR [rdx],1
   14000b2dc:	f6 4f 08 cc          	test   BYTE PTR [rdi+0x8],0xcc
   14000b2e0:	a3 62 b3 c3 13 fa 1d 	movabs ds:0x8d171dfa13c3b362,eax
   14000b2e7:	17 8d 
   14000b2e9:	00 5f e4             	add    BYTE PTR [rdi-0x1c],bl
   14000b2ec:	4c ef                	rex.WR out dx,eax
   14000b2ee:	c2 49 01             	ret    0x149
   14000b2f1:	46 85 36             	rex.RX test DWORD PTR [rsi],r14d
   14000b2f4:	99                   	cdq
   14000b2f5:	20 13                	and    BYTE PTR [rbx],dl
   14000b2f7:	24 41                	and    al,0x41
   14000b2f9:	bc 7c 2b e6 36       	mov    esp,0x36e62b7c
   14000b2fe:	5b                   	pop    rbx
   14000b2ff:	ee                   	out    dx,al
   14000b300:	94                   	xchg   esp,eax
   14000b301:	85 d0                	test   eax,edx
   14000b303:	c7                   	(bad)
   14000b304:	67 c3                	addr32 ret
   14000b306:	05 fc 3b c6 d9       	add    eax,0xd9c63bfc
   14000b30b:	99                   	cdq
   14000b30c:	45 23 5b 5d          	and    r11d,DWORD PTR [r11+0x5d]
   14000b310:	27                   	(bad)
   14000b311:	42 8f                	rex.X (bad)
   14000b313:	bc 72 ac 98 ad       	mov    esp,0xad98ac72
   14000b318:	70 ca                	jo     0x14000b2e4
   14000b31a:	27                   	(bad)
   14000b31b:	fc                   	cld
   14000b31c:	17                   	(bad)
   14000b31d:	8e bd 07 8d 3c b1    	mov    ?,WORD PTR [rbp-0x4ec372f9]
   14000b323:	8d                   	lea    ebp,(bad)
   14000b324:	ef                   	out    dx,eax
   14000b325:	69 0a b6 76 a4 f9    	imul   ecx,DWORD PTR [rdx],0xf9a476b6
   14000b32b:	01 c9                	add    ecx,ecx
   14000b32d:	9e                   	sahf
   14000b32e:	ab                   	stos   DWORD PTR es:[rdi],eax
   14000b32f:	f8                   	clc
   14000b330:	6a 82                	push   0xffffffffffffff82
   14000b332:	86 14 fa             	xchg   BYTE PTR [rdx+rdi*8],dl
   14000b335:	3a 83 53 8d ae a4    	cmp    al,BYTE PTR [rbx-0x5b5172ad]
   14000b33b:	47                   	rex.RXB
   14000b33c:	47 13 5c c7 9f       	adc    r11d,DWORD PTR [r15+r8*8-0x61]
   14000b341:	f1                   	int1
   14000b342:	2d d7 cd 89 22       	sub    eax,0x2289cdd7
   14000b347:	e3 5b                	jrcxz  0x14000b3a4
   14000b349:	0b bf b6 ed 14 43    	or     edi,DWORD PTR [rdi+0x4314edb6]
   14000b34f:	1d 7b d5 72 fd       	sbb    eax,0xfd72d57b
   14000b354:	c4                   	(bad)
   14000b355:	7b e0                	jnp    0x14000b337
   14000b357:	05 8d d8 4c 93       	add    eax,0x934cd88d
   14000b35c:	12 0a                	adc    cl,BYTE PTR [rdx]
   14000b35e:	37                   	(bad)
   14000b35f:	7b d6                	jnp    0x14000b337
   14000b361:	d7                   	xlat   BYTE PTR ds:[rbx]
   14000b362:	20 ce                	and    dh,cl
   14000b364:	ae                   	scas   al,BYTE PTR es:[rdi]
   14000b365:	6d                   	ins    DWORD PTR es:[rdi],dx
   14000b366:	c9                   	leave
   14000b367:	0a 2b                	or     ch,BYTE PTR [rbx]
   14000b369:	eb ca                	jmp    0x14000b335
   14000b36b:	15 bc 22 5d 51       	adc    eax,0x515d22bc
   14000b370:	b0 6f                	mov    al,0x6f
   14000b372:	f3 52                	repz push rdx
   14000b374:	96                   	xchg   esi,eax
   14000b375:	80 f6 71             	xor    dh,0x71
   14000b378:	e8 95 00 7b 73       	call   0x1b37bb412
   14000b37d:	70 bb                	jo     0x14000b33a
   14000b37f:	aa                   	stos   BYTE PTR es:[rdi],al
   14000b380:	95                   	xchg   ebp,eax
   14000b381:	4b 81 2e b1 00 e2 84 	rex.WXB sub QWORD PTR [r14],0xffffffff84e200b1
   14000b388:	f9                   	stc
   14000b389:	2d be c1 8a 6c       	sub    eax,0x6c8ac1be
   14000b38e:	ea                   	(bad)
   14000b38f:	86 c8                	xchg   al,cl
   14000b391:	0c 1d                	or     al,0x1d
   14000b393:	91                   	xchg   ecx,eax
   14000b394:	f9                   	stc
   14000b395:	92                   	xchg   edx,eax
   14000b396:	28 2f                	sub    BYTE PTR [rdi],ch
   14000b398:	5f                   	pop    rdi
   14000b399:	80 5c 9a e4 07       	sbb    BYTE PTR [rdx+rbx*4-0x1c],0x7
   14000b39e:	3d 32 3e 42 da       	cmp    eax,0xda423e32
   14000b3a3:	2f                   	(bad)
   14000b3a4:	14 2a                	adc    al,0x2a
   14000b3a6:	23 0f                	and    ecx,DWORD PTR [rdi]
   14000b3a8:	68 c0 3f 6f f0       	push   0xfffffffff06f3fc0
   14000b3ad:	05 b7 3d 70 02       	add    eax,0x2703db7
   14000b3b2:	29 74 fd 12          	sub    DWORD PTR [rbp+rdi*8+0x12],esi
   14000b3b6:	b6 97                	mov    dh,0x97
   14000b3b8:	9f                   	lahf
   14000b3b9:	6e                   	outs   dx,BYTE PTR ds:[rsi]
   14000b3ba:	c0 d4 74             	rcl    ah,0x74
   14000b3bd:	fe 02                	inc    BYTE PTR [rdx]
   14000b3bf:	e7 d4                	out    0xd4,eax
   14000b3c1:	43                   	rex.XB
   14000b3c2:	36 1a 5c 66 21       	ss sbb bl,BYTE PTR [rsi+riz*2+0x21]
   14000b3c7:	05 cc cb 5d 18       	add    eax,0x185dcbcc
   14000b3cc:	da 90 65 e4 3e 5c    	ficom  DWORD PTR [rax+0x5c3ee465]
   14000b3d2:	aa                   	stos   BYTE PTR es:[rdi],al
   14000b3d3:	47                   	rex.RXB
   14000b3d4:	42 c2 64 01          	rex.X ret 0x164
   14000b3d8:	df 4f 37             	fisttp WORD PTR [rdi+0x37]
   14000b3db:	3e d5 7a e6          	(bad)
   14000b3df:	8d                   	lea    esi,(bad)
   14000b3e0:	f3 b9 f0 2d ec f4    	repz mov ecx,0xf4ec2df0
   14000b3e6:	31 8d f8 92 08 d9    	xor    DWORD PTR [rbp-0x26f76d08],ecx
   14000b3ec:	5a                   	pop    rdx
   14000b3ed:	7c 51                	jl     0x14000b440
   14000b3ef:	04 cf                	add    al,0xcf
   14000b3f1:	2a 6a 63             	sub    ch,BYTE PTR [rdx+0x63]
   14000b3f4:	4b ab                	rex.WXB stos QWORD PTR es:[rdi],rax
   14000b3f6:	e1 81                	loope  0x14000b379
   14000b3f8:	85 1f                	test   DWORD PTR [rdi],ebx
   14000b3fa:	52                   	push   rdx
   14000b3fb:	e3 2a                	jrcxz  0x14000b427
   14000b3fd:	4a fd                	rex.WX std
   14000b3ff:	8e f8                	mov    ?,eax
   14000b401:	0b 51 cb             	or     edx,DWORD PTR [rcx-0x35]
   14000b404:	34 57                	xor    al,0x57
   14000b406:	f0 78 a2             	lock js 0x14000b3ab
   14000b409:	9c                   	pushf
   14000b40a:	1a 9a 8f 65 b9 a9    	sbb    bl,BYTE PTR [rdx-0x56469a71]
   14000b410:	8a ee                	mov    ch,dh
   14000b412:	78 eb                	js     0x14000b3ff
   14000b414:	ef                   	out    dx,eax
   14000b415:	a3 5e 6a d3 e4 8e cd 	movabs ds:0xcc44cd8ee4d36a5e,eax
   14000b41c:	44 cc 
   14000b41e:	74 63                	je     0x14000b483
   14000b420:	c0 bc ab 8a f0 f1 fa 	sar    BYTE PTR [rbx+rbp*4-0x50e0f76],0xa1
   14000b427:	a1 
   14000b428:	c0 e6 36             	shl    dh,0x36
   14000b42b:	45                   	rex.RB
   14000b42c:	40 55                	rex push rbp
   14000b42e:	dd 87 b2 b8 e0 66    	fld    QWORD PTR [rdi+0x66e0b8b2]
   14000b434:	ef                   	out    dx,eax
   14000b435:	99                   	cdq
   14000b436:	5a                   	pop    rdx
   14000b437:	ab                   	stos   DWORD PTR es:[rdi],eax
   14000b438:	d6                   	(bad)
   14000b439:	1f                   	(bad)
   14000b43a:	06                   	(bad)
   14000b43b:	fc                   	cld
   14000b43c:	57                   	push   rdi
   14000b43d:	85 0e                	test   DWORD PTR [rsi],ecx
   14000b43f:	fd                   	std
   14000b440:	2a 9c c1 cc ac 6b 36 	sub    bl,BYTE PTR [rcx+rax*8+0x366baccc]
   14000b447:	e2 f8                	loop   0x14000b441
   14000b449:	4c 6b de 6d          	imul   r11,rsi,0x6d
   14000b44d:	19 b7 ef 84 66 a5    	sbb    DWORD PTR [rdi-0x5a997b11],esi
   14000b453:	88 86 15 be 37 c8    	mov    BYTE PTR [rsi-0x37c841eb],al
   14000b459:	45 32 f1             	xor    r14b,r9b
   14000b45c:	b1 64                	mov    cl,0x64
   14000b45e:	dc 25 bf 0c 8d 5d    	fsub   QWORD PTR [rip+0x5d8d0cbf]        # 0x19d8dc123
   14000b464:	6c                   	ins    BYTE PTR es:[rdi],dx
   14000b465:	d7                   	xlat   BYTE PTR ds:[rbx]
   14000b466:	22 30                	and    dh,BYTE PTR [rax]
   14000b468:	2a 3c f9             	sub    bh,BYTE PTR [rcx+rdi*8]
   14000b46b:	79 32                	jns    0x14000b49f
   14000b46d:	bd 42 bf 33 0d       	mov    ebp,0xd33bf42
   14000b472:	e5 bb                	in     eax,0xbb
   14000b474:	06                   	(bad)
   14000b475:	44 1d b5 e9 6a 78    	rex.R sbb eax,0x786ae9b5
   14000b47b:	b4 e5                	mov    ah,0xe5
   14000b47d:	d1 f2                	shl    edx,1
   14000b47f:	f2 c4                	repnz (bad)
   14000b481:	3a cb                	cmp    cl,bl
   14000b483:	9e                   	sahf
   14000b484:	83 19 d3             	sbb    DWORD PTR [rcx],0xffffffd3
   14000b487:	35 03 df b5 56       	xor    eax,0x56b5df03
   14000b48c:	c5 c2 d8             	(bad)
   14000b48f:	45 83 7b 2e 9c       	rex.RB cmp DWORD PTR [r11+0x2e],0xffffff9c
   14000b494:	73 f8                	jae    0x14000b48e
   14000b496:	29 d7                	sub    edi,edx
   14000b498:	07                   	(bad)
   14000b499:	cb                   	retf
   14000b49a:	57                   	push   rdi
   14000b49b:	fa                   	cli
   14000b49c:	df b7 23 7c 17 c1    	fbstp  TBYTE PTR [rdi-0x3ee883dd]
   14000b4a2:	5b                   	pop    rbx
   14000b4a3:	48 b0 59             	rex.W mov al,0x59
   14000b4a6:	09 50 dc             	or     DWORD PTR [rax-0x24],edx
   14000b4a9:	fb                   	sti
   14000b4aa:	02 f3                	add    dh,bl
   14000b4ac:	af                   	scas   eax,DWORD PTR es:[rdi]
   14000b4ad:	86 e4                	xchg   ah,ah
   14000b4af:	85 6a 70             	test   DWORD PTR [rdx+0x70],ebp
   14000b4b2:	ce                   	(bad)
   14000b4b3:	bd a0 b9 af 5e       	mov    ebp,0x5eafb9a0
   14000b4b8:	01 52 e2             	add    DWORD PTR [rdx-0x1e],edx
   14000b4bb:	d7                   	xlat   BYTE PTR ds:[rbx]
   14000b4bc:	b2 9e                	mov    dl,0x9e
   14000b4be:	30 1c 3f             	xor    BYTE PTR [rdi+rdi*1],bl
   14000b4c1:	92                   	xchg   edx,eax
   14000b4c2:	77 06                	ja     0x14000b4ca
   14000b4c4:	af                   	scas   eax,DWORD PTR es:[rdi]
   14000b4c5:	67 5d                	addr32 pop rbp
   14000b4c7:	75 3c                	jne    0x14000b505
   14000b4c9:	40 22 df             	and    bl,dil
   14000b4cc:	39 ee                	cmp    esi,ebp
   14000b4ce:	c7                   	(bad)
   14000b4cf:	fd                   	std
   14000b4d0:	78 ec                	js     0x14000b4be
   14000b4d2:	36 15 98 bf e7 da    	ss adc eax,0xdae7bf98
   14000b4d8:	18 1e                	sbb    BYTE PTR [rsi],bl
   14000b4da:	97                   	xchg   edi,eax
   14000b4db:	61                   	(bad)
   14000b4dc:	04 62                	add    al,0x62
   14000b4de:	dc 6a 99             	fsubr  QWORD PTR [rdx-0x67]
   14000b4e1:	c8 bf 71 72          	enter  0x71bf,0x72
   14000b4e5:	35 7d ce 82 d2       	xor    eax,0xd282ce7d
   14000b4ea:	e1 4e                	loope  0x14000b53a
   14000b4ec:	29 bb 7d 8f ac 1b    	sub    DWORD PTR [rbx+0x1bac8f7d],edi
   14000b4f2:	1e                   	(bad)
   14000b4f3:	49                   	rex.WB
   14000b4f4:	42 a9 85 28 ae 26    	rex.X test eax,0x26ae2885
   14000b4fa:	af                   	scas   eax,DWORD PTR es:[rdi]
   14000b4fb:	cc                   	int3
   14000b4fc:	20 18                	and    BYTE PTR [rax],bl
   14000b4fe:	ba c6 5a a7 5a       	mov    edx,0x5aa75ac6
   14000b503:	97                   	xchg   edi,eax
   14000b504:	28 8c 22 5c 99 d3 55 	sub    BYTE PTR [rdx+riz*1+0x55d3995c],cl
   14000b50b:	61                   	(bad)
   14000b50c:	fb                   	sti
   14000b50d:	35 b6 65 06 23       	xor    eax,0x230665b6
   14000b512:	91                   	xchg   ecx,eax
   14000b513:	e2 24                	loop   0x14000b539
   14000b515:	8e 63 fd             	mov    fs,WORD PTR [rbx-0x3]
   14000b518:	78 a3                	js     0x14000b4bd
   14000b51a:	5c                   	pop    rsp
   14000b51b:	7c 0a                	jl     0x14000b527
   14000b51d:	0d af 53 c5 43       	or     eax,0x43c553af
   14000b522:	da 7b 2c             	fidivr DWORD PTR [rbx+0x2c]
   14000b525:	a2 da 7c 35 3b c9 a2 	movabs ds:0xc5cca2c93b357cda,al
   14000b52c:	cc c5 
   14000b52e:	d7                   	xlat   BYTE PTR ds:[rbx]
   14000b52f:	99                   	cdq
   14000b530:	10 af b5 d5 4f 53    	adc    BYTE PTR [rdi+0x534fd5b5],ch
   14000b536:	f3 e4 d0             	repz in al,0xd0
   14000b539:	e5 75                	in     eax,0x75
   14000b53b:	25 96 ed 65 48       	and    eax,0x4865ed96
   14000b540:	fe                   	(bad)
   14000b541:	bc 9a 05 11 94       	mov    esp,0x9411059a
   14000b546:	cc                   	int3
   14000b547:	80 80 65 26 14 5f 53 	add    BYTE PTR [rax+0x5f142665],0x53
   14000b54e:	d3 ee                	shr    esi,cl
   14000b550:	37                   	(bad)
   14000b551:	e5 78                	in     eax,0x78
   14000b553:	75 da                	jne    0x14000b52f
   14000b555:	85 f8                	test   eax,edi
   14000b557:	cb                   	retf
   14000b558:	ca 70 a2             	retf   0xa270
   14000b55b:	1c d9                	sbb    al,0xd9
   14000b55d:	e5 88                	in     eax,0x88
   14000b55f:	9c                   	pushf
   14000b560:	8a 1d 7d 03 e1 5e    	mov    bl,BYTE PTR [rip+0x5ee1037d]        # 0x19ee1b8e3
   14000b566:	09 13                	or     DWORD PTR [rbx],edx
   14000b568:	5b                   	pop    rbx
   14000b569:	54                   	push   rsp
   14000b56a:	90                   	nop
   14000b56b:	da ef                	(bad)
   14000b56d:	83 25 9c a6 3d 4a f3 	and    DWORD PTR [rip+0x4a3da69c],0xfffffff3        # 0x18a3e5c10
   14000b574:	bc 4f b7 7a 0c       	mov    esp,0xc7ab74f
   14000b579:	ca ab 76             	retf   0x76ab
   14000b57c:	87 a8 7d 84 0d cc    	xchg   DWORD PTR [rax-0x33f27b83],ebp
   14000b582:	c1 27 f8             	shl    DWORD PTR [rdi],0xf8
   14000b585:	7d 59                	jge    0x14000b5e0
   14000b587:	00 86 37 85 61 65    	add    BYTE PTR [rsi+0x65618537],al
   14000b58d:	26 97                	es xchg edi,eax
   14000b58f:	50                   	push   rax
   14000b590:	c3                   	ret
   14000b591:	63 09                	movsxd ecx,DWORD PTR [rcx]
   14000b593:	ab                   	stos   DWORD PTR es:[rdi],eax
   14000b594:	af                   	scas   eax,DWORD PTR es:[rdi]
   14000b595:	11 bb f8 1e 17 67    	adc    DWORD PTR [rbx+0x67171ef8],edi
   14000b59b:	4b a6                	rex.WXB cmps BYTE PTR ds:[rsi],BYTE PTR es:[rdi]
   14000b59d:	12 ac b8 f4 9f b7 91 	adc    ch,BYTE PTR [rax+rdi*4-0x6e48600c]
   14000b5a4:	c3                   	ret
   14000b5a5:	39 db                	cmp    ebx,ebx
   14000b5a7:	b9 9f 29 f0 b0       	mov    ecx,0xb0f0299f
   14000b5ac:	bd 33 34 64 98       	mov    ebp,0x98643433
   14000b5b1:	26 87 a1 97 65 62 09 	es xchg DWORD PTR [rcx+0x9626597],esp
   14000b5b8:	12 93 be cd 4f d3    	adc    dl,BYTE PTR [rbx-0x2cb03242]
   14000b5be:	4b 6a 98             	rex.WXB push 0xffffffffffffff98
   14000b5c1:	d0 f0                	shl    al,1
   14000b5c3:	ba 8e a4 e4 b6       	mov    edx,0xb6e4a48e
   14000b5c8:	88 a8 21 1c 86 eb    	mov    BYTE PTR [rax-0x1479e3df],ch
   14000b5ce:	c7                   	(bad)
   14000b5cf:	4a 84 1a             	rex.WX test BYTE PTR [rdx],bl
   14000b5d2:	b1 f8                	mov    cl,0xf8
   14000b5d4:	a6                   	cmps   BYTE PTR ds:[rsi],BYTE PTR es:[rdi]
   14000b5d5:	79 59                	jns    0x14000b630
   14000b5d7:	91                   	xchg   ecx,eax
   14000b5d8:	75 49                	jne    0x14000b623
   14000b5da:	19 09                	sbb    DWORD PTR [rcx],ecx
   14000b5dc:	9c                   	pushf
   14000b5dd:	02 16                	add    dl,BYTE PTR [rsi]
   14000b5df:	d3 7e 23             	sar    DWORD PTR [rsi+0x23],cl
   14000b5e2:	9b                   	rex.WR
   14000b5e3:	4c                   	rex.WR
   14000b5e4:	66 89 37             	mov    WORD PTR [rdi],si
   14000b5e7:	17                   	(bad)
   14000b5e8:	3a f2                	cmp    dh,dl
   14000b5ea:	ee                   	out    dx,al
   14000b5eb:	a8 11                	test   al,0x11
   14000b5ed:	6c                   	ins    BYTE PTR es:[rdi],dx
   14000b5ee:	73 2b                	jae    0x14000b61b
   14000b5f0:	8f                   	(bad)
   14000b5f1:	d9 7c d0 73          	fnstcw WORD PTR [rax+rdx*8+0x73]
   14000b5f5:	de 04 f7             	fiadd  WORD PTR [rdi+rsi*8]
   14000b5f8:	b5 3d                	mov    ch,0x3d
   14000b5fa:	d5 01 ef             	(bad)
   14000b5fd:	a0 a1 6a 77 47 40 24 	movabs al,ds:0xbf3244047776aa1
   14000b604:	f3 0b 
   14000b606:	8e 9c d7 58 01 59 74 	mov    ds,WORD PTR [rdi+rdx*8+0x74590158]
   14000b60d:	19 5a 40             	sbb    DWORD PTR [rdx+0x40],ebx
   14000b610:	f3 f0 95             	repz lock xchg ebp,eax
   14000b613:	24 99                	and    al,0x99
   14000b615:	e6 87                	out    0x87,al
   14000b617:	db 39                	fstp   TBYTE PTR [rcx]
   14000b619:	d3 ce                	ror    esi,cl
   14000b61b:	13 a8 25 db 22 b7    	adc    ebp,DWORD PTR [rax-0x48dd24db]
   14000b621:	cf                   	iret
   14000b622:	c4                   	(bad)
   14000b623:	b6 5a                	mov    dh,0x5a
   14000b625:	98                   	cwde
   14000b626:	3f                   	(bad)
   14000b627:	89 f8                	mov    eax,edi
   14000b629:	92                   	xchg   edx,eax
   14000b62a:	7f 6d                	jg     0x14000b699
   14000b62c:	78 f3                	js     0x14000b621
   14000b62e:	af                   	scas   eax,DWORD PTR es:[rdi]
   14000b62f:	06                   	(bad)
   14000b630:	e8 2d e7 7e 17       	call   0x1577f9d62
   14000b635:	b5 e9                	mov    ch,0xe9
   14000b637:	62 9e 2f 75 fd       	(bad)
   14000b63c:	b9 f4 6f 77 a6       	mov    ecx,0xa6776ff4
   14000b641:	53                   	push   rbx
   14000b642:	71 87                	jno    0x14000b5cb
   14000b644:	85 c1                	test   ecx,eax
   14000b646:	f0 18 7e f6          	lock sbb BYTE PTR [rsi-0xa],bh
   14000b64a:	38 5b f4             	cmp    BYTE PTR [rbx-0xc],bl
   14000b64d:	a4                   	movs   BYTE PTR es:[rdi],BYTE PTR ds:[rsi]
   14000b64e:	d4                   	(bad)
   14000b64f:	8c 93 cb 29 35 5f    	mov    WORD PTR [rbx+0x5f3529cb],ss
   14000b655:	28 73 06             	sub    BYTE PTR [rbx+0x6],dh
   14000b658:	d4                   	(bad)
   14000b659:	e7 c6                	out    0xc6,eax
   14000b65b:	32 3a                	xor    bh,BYTE PTR [rdx]
   14000b65d:	f7 06 20 4c dc 40    	test   DWORD PTR [rsi],0x40dc4c20
   14000b663:	08 20                	or     BYTE PTR [rax],ah
   14000b665:	ae                   	scas   al,BYTE PTR es:[rdi]
   14000b666:	af                   	scas   eax,DWORD PTR es:[rdi]
   14000b667:	7b 65                	jnp    0x14000b6ce
   14000b669:	99                   	cdq
   14000b66a:	2a 69 7e             	sub    ch,BYTE PTR [rcx+0x7e]
   14000b66d:	e6 f6                	out    0xf6,al
   14000b66f:	b3 75                	mov    bl,0x75
   14000b671:	83 c8 92             	or     eax,0xffffff92
   14000b674:	b0 1f                	mov    al,0x1f
   14000b676:	0c 0e                	or     al,0xe
   14000b678:	89 ce                	mov    esi,ecx
   14000b67a:	d2 e1                	shl    cl,cl
   14000b67c:	6b 44 03 34 9b       	imul   eax,DWORD PTR [rbx+rax*1+0x34],0xffffff9b
   14000b681:	5e                   	pop    rsi
   14000b682:	3c 2f                	cmp    al,0x2f
   14000b684:	da 31                	fidiv  DWORD PTR [rcx]
   14000b686:	4a 79 06             	rex.WX jns 0x14000b68f
   14000b689:	94                   	xchg   esp,eax
   14000b68a:	a4                   	movs   BYTE PTR es:[rdi],BYTE PTR ds:[rsi]
   14000b68b:	27                   	(bad)
   14000b68c:	48 c2 27 ac          	rex.W ret 0xac27
   14000b690:	64 91                	fs xchg ecx,eax
   14000b692:	f1                   	int1
   14000b693:	49 9f                	rex.WB lahf
   14000b695:	34 62                	xor    al,0x62
   14000b697:	3f                   	(bad)
   14000b698:	2f                   	(bad)
   14000b699:	55                   	push   rbp
   14000b69a:	f2 a6                	repnz cmps BYTE PTR ds:[rsi],BYTE PTR es:[rdi]
   14000b69c:	f5                   	cmc
   14000b69d:	27                   	(bad)
   14000b69e:	df cb                	(bad)
   14000b6a0:	00 7d 15             	add    BYTE PTR [rbp+0x15],bh
   14000b6a3:	90                   	nop
   14000b6a4:	2c 32                	sub    al,0x32
   14000b6a6:	cb                   	retf
   14000b6a7:	94                   	xchg   esp,eax
   14000b6a8:	36 c8 c3 21 cc       	ss enter 0x21c3,0xcc
   14000b6ad:	2a 5a 72             	sub    bl,BYTE PTR [rdx+0x72]
   14000b6b0:	1b 92 31 36 e3 89    	sbb    edx,DWORD PTR [rdx-0x761cc9cf]
   14000b6b6:	cd b3                	int    0xb3
   14000b6b8:	e1 4e                	loope  0x14000b708
   14000b6ba:	d3 64 60 f3          	shl    DWORD PTR [rax+riz*2-0xd],cl
   14000b6be:	fb                   	sti
   14000b6bf:	4f 06                	rex.WRXB (bad)
   14000b6c1:	15 78 24 46 2a       	adc    eax,0x2a462478
   14000b6c6:	83 26 86             	and    DWORD PTR [rsi],0xffffff86
   14000b6c9:	e8 7d eb b9 7e       	call   0x1bebaa24b
   14000b6ce:	98                   	cwde
   14000b6cf:	0b f8                	or     edi,eax
   14000b6d1:	f5                   	cmc
   14000b6d2:	53                   	push   rbx
   14000b6d3:	12 cf                	adc    cl,bh
   14000b6d5:	4a 9d                	rex.WX popf
   14000b6d7:	04 5c                	add    al,0x5c
   14000b6d9:	14 57                	adc    al,0x57
   14000b6db:	5d                   	pop    rbp
   14000b6dc:	7d 71                	jge    0x14000b74f
   14000b6de:	98                   	cwde
   14000b6df:	96                   	xchg   esi,eax
   14000b6e0:	cc                   	int3
   14000b6e1:	7d f2                	jge    0x14000b6d5
   14000b6e3:	d8 18                	fcomp  DWORD PTR [rax]
   14000b6e5:	3e c7                	ds (bad)
   14000b6e7:	69 f0 d7 70 c5 01    	imul   esi,eax,0x1c570d7
   14000b6ed:	b7 5c                	mov    bh,0x5c
   14000b6ef:	5b                   	pop    rbx
   14000b6f0:	f9                   	stc
   14000b6f1:	dc 87 07 26 1e 4d    	fadd   QWORD PTR [rdi+0x4d1e2607]
   14000b6f7:	25 a4 3b 9b ae       	and    eax,0xae9b3ba4
   14000b6fc:	62 bc f9 59 a6       	(bad)
   14000b701:	55                   	push   rbp
   14000b702:	df 62 67             	fbld   TBYTE PTR [rdx+0x67]
   14000b705:	44 52                	rex.R push rdx
   14000b707:	67 37                	addr32 (bad)
   14000b709:	f5                   	cmc
   14000b70a:	ca 6f ef             	retf   0xef6f
   14000b70d:	0b f8                	or     edi,eax
   14000b70f:	ed                   	in     eax,dx
   14000b710:	f8                   	clc
   14000b711:	40 17                	rex (bad)
   14000b713:	d3 f5                	shl    ebp,cl
   14000b715:	82                   	(bad)
   14000b716:	77 42                	ja     0x14000b75a
   14000b718:	75 84                	jne    0x14000b69e
   14000b71a:	a9 7a f8 e8 89       	test   eax,0x89e8f87a
   14000b71f:	0f 45 6d be          	cmovne ebp,DWORD PTR [rbp-0x42]
   14000b723:	bb 21 b4 94 cb       	mov    ebx,0xcb94b421
   14000b728:	c2 88 31             	ret    0x3188
   14000b72b:	88 f5                	mov    ch,dh
   14000b72d:	7a dd                	jp     0x14000b70c
   14000b72f:	bd 43 fe d0 ab       	mov    ebp,0xabd0fe43
   14000b734:	66 18 0a             	data16 sbb BYTE PTR [rdx],cl
   14000b737:	15 d4 10 f2 12       	adc    eax,0x12f210d4
   14000b73c:	77 db                	ja     0x14000b719
   14000b73e:	d4                   	(bad)
   14000b73f:	7b 1c                	jnp    0x14000b75d
   14000b741:	6e                   	outs   dx,BYTE PTR ds:[rsi]
   14000b742:	e6 94                	out    0x94,al
   14000b744:	76 93                	jbe    0x14000b6d9
   14000b746:	0d 01 30 69 8d       	or     eax,0x8d693001
   14000b74b:	9d                   	popf
   14000b74c:	4b                   	rex.WXB
   14000b74d:	d5 0c 1b 82 20 0f 67 	{rex2 0xc} sbb r8,QWORD PTR [rdx+0x35670f20]
   14000b754:	35 
   14000b755:	55                   	push   rbp
   14000b756:	ae                   	scas   al,BYTE PTR es:[rdi]
   14000b757:	c2 4b 58             	ret    0x584b
   14000b75a:	85 cd                	test   ebp,ecx
   14000b75c:	3c b6                	cmp    al,0xb6
   14000b75e:	3d e9 fd 33 fb       	cmp    eax,0xfb33fde9
   14000b763:	c2 b3 55             	ret    0x55b3
   14000b766:	6d                   	ins    DWORD PTR es:[rdi],dx
   14000b767:	06                   	(bad)
   14000b768:	12 dc                	adc    bl,ah
   14000b76a:	7b 41                	jnp    0x14000b7ad
   14000b76c:	a9 ba 71 dc b0       	test   eax,0xb0dc71ba
   14000b771:	aa                   	stos   BYTE PTR es:[rdi],al
   14000b772:	8a 0f                	mov    cl,BYTE PTR [rdi]
   14000b774:	18 64 3d 80          	sbb    BYTE PTR [rbp+rdi*1-0x80],ah
   14000b778:	e6 48                	out    0x48,al
   14000b77a:	d1 98 6a 71 6d 9d    	rcr    DWORD PTR [rax-0x62928e96],1
   14000b780:	11 43 92             	adc    DWORD PTR [rbx-0x6e],eax
   14000b783:	ee                   	out    dx,al
   14000b784:	13 23                	adc    esp,DWORD PTR [rbx]
   14000b786:	be 21 3f 5e 87       	mov    esi,0x875e3f21
   14000b78b:	02 5b 12             	add    bl,BYTE PTR [rbx+0x12]
   14000b78e:	c5 e1 33             	(bad)
   14000b791:	ad                   	lods   eax,DWORD PTR ds:[rsi]
   14000b792:	a8 3f                	test   al,0x3f
   14000b794:	8f                   	(bad)
   14000b795:	27                   	(bad)
   14000b796:	07                   	(bad)
   14000b797:	ac                   	lods   al,BYTE PTR ds:[rsi]
   14000b798:	68 ad b6 5e 6b       	push   0x6b5eb6ad
   14000b79d:	c3                   	ret
   14000b79e:	22 b8 2b a6 cd d3    	and    bh,BYTE PTR [rax-0x2c3259d5]
   14000b7a4:	6b cd 7b             	imul   ecx,ebp,0x7b
   14000b7a7:	7c 24                	jl     0x14000b7cd
   14000b7a9:	72 04                	jb     0x14000b7af
   14000b7ab:	00 cb                	add    bl,cl
   14000b7ad:	a9 ec a0 92 06       	test   eax,0x692a0ec
   14000b7b2:	a7                   	cmps   DWORD PTR ds:[rsi],DWORD PTR es:[rdi]
   14000b7b3:	d2 9b 69 09 8a 23    	rcr    BYTE PTR [rbx+0x238a0969],cl
   14000b7b9:	e7 64                	out    0x64,eax
   14000b7bb:	3c c7                	cmp    al,0xc7
   14000b7bd:	d0 08                	ror    BYTE PTR [rax],1
   14000b7bf:	90                   	nop
   14000b7c0:	f2 0c b7             	repnz or al,0xb7
   14000b7c3:	e9 bc 3e c3 1e       	jmp    0x15ec3f684
   14000b7c8:	a7                   	cmps   DWORD PTR ds:[rsi],DWORD PTR es:[rdi]
   14000b7c9:	de ba fe aa 9a cb    	fidivr WORD PTR [rdx-0x34655502]
   14000b7cf:	78 66                	js     0x14000b837
   14000b7d1:	14 d0                	adc    al,0xd0
   14000b7d3:	07                   	(bad)
   14000b7d4:	cc                   	int3
   14000b7d5:	b1 af                	mov    cl,0xaf
   14000b7d7:	5d                   	pop    rbp
   14000b7d8:	1a c5                	sbb    al,ch
   14000b7da:	38 6e 13             	cmp    BYTE PTR [rsi+0x13],ch
   14000b7dd:	58                   	pop    rax
   14000b7de:	24 a7                	and    al,0xa7
   14000b7e0:	1b e9                	sbb    ebp,ecx
   14000b7e2:	83 cb 24             	or     ebx,0x24
   14000b7e5:	23 b0 dd 3b 81 7f    	and    esi,DWORD PTR [rax+0x7f813bdd]
   14000b7eb:	d7                   	xlat   BYTE PTR ds:[rbx]
   14000b7ec:	ec                   	in     al,dx
   14000b7ed:	9d                   	popf
   14000b7ee:	aa                   	stos   BYTE PTR es:[rdi],al
   14000b7ef:	1a 3a                	sbb    bh,BYTE PTR [rdx]
   14000b7f1:	9e                   	sahf
   14000b7f2:	e3 64                	jrcxz  0x14000b858
   14000b7f4:	62 34 88 b0 69       	(bad)
   14000b7f9:	01 a1 c1 9a 88 06    	add    DWORD PTR [rcx+0x6889ac1],esp
   14000b7ff:	aa                   	stos   BYTE PTR es:[rdi],al
   14000b800:	ce                   	(bad)
   14000b801:	b8 bc 6b 67 9e       	mov    eax,0x9e676bbc
   14000b806:	64 bd 14 09 01 1b    	fs mov ebp,0x1b010914
   14000b80c:	ac                   	lods   al,BYTE PTR ds:[rsi]
   14000b80d:	cc                   	int3
   14000b80e:	30 53 61             	xor    BYTE PTR [rbx+0x61],dl
   14000b811:	b8 68 d9 f9 15       	mov    eax,0x15f9d968
   14000b816:	ec                   	in     al,dx
   14000b817:	5e                   	pop    rsi
   14000b818:	51                   	push   rcx
   14000b819:	c7                   	(bad)
   14000b81a:	7f 41                	jg     0x14000b85d
   14000b81c:	e7 15                	out    0x15,eax
   14000b81e:	42 98                	rex.X cwde
   14000b820:	98                   	cwde
   14000b821:	9c                   	pushf
   14000b822:	8c b8 64 76 65 ed    	mov    WORD PTR [rax-0x129a899c],?
   14000b828:	2a f6                	sub    dh,dh
   14000b82a:	c2 0c cf             	ret    0xcf0c
   14000b82d:	fd                   	std
   14000b82e:	83 f1 9d             	xor    ecx,0xffffff9d
   14000b831:	aa                   	stos   BYTE PTR es:[rdi],al
   14000b832:	b1 c1                	mov    cl,0xc1
   14000b834:	ae                   	scas   al,BYTE PTR es:[rdi]
   14000b835:	52                   	push   rdx
   14000b836:	56                   	push   rsi
   14000b837:	60                   	(bad)
   14000b838:	f3 c8 30 e3 f9       	repz enter 0xe330,0xf9
   14000b83d:	20 58 1b             	and    BYTE PTR [rax+0x1b],bl
   14000b840:	b1 ef                	mov    cl,0xef
   14000b842:	62 05 44 ac 25       	(bad)
   14000b847:	5f                   	pop    rdi
   14000b848:	10 96 0d 64 e4 b1    	adc    BYTE PTR [rsi-0x4e1b9bf3],dl
   14000b84e:	e3 de                	jrcxz  0x14000b82e
   14000b850:	0e                   	(bad)
   14000b851:	0a ee                	or     ch,dh
   14000b853:	97                   	xchg   edi,eax
   14000b854:	d8 fc                	fdivr  st,st(4)
   14000b856:	c8 17 4e ac          	enter  0x4e17,0xac
   14000b85a:	d2 fd                	sar    ch,cl
   14000b85c:	d2 7f fb             	sar    BYTE PTR [rdi-0x5],cl
   14000b85f:	97                   	xchg   edi,eax
   14000b860:	f3 a0 56 83 4d d1 7d 	repz movabs al,ds:0x7015e77dd14d8356
   14000b867:	e7 15 70 
   14000b86a:	ea                   	(bad)
   14000b86b:	9c                   	pushf
   14000b86c:	ef                   	out    dx,eax
   14000b86d:	3d 4c 33 a6 63       	cmp    eax,0x63a6334c
   14000b872:	ad                   	lods   eax,DWORD PTR ds:[rsi]
   14000b873:	64 54                	fs push rsp
   14000b875:	1b 69 e6             	sbb    ebp,DWORD PTR [rcx-0x1a]
   14000b878:	d3 ce                	ror    esi,cl
   14000b87a:	f1                   	int1
   14000b87b:	cd f9                	int    0xf9
   14000b87d:	c3                   	ret
   14000b87e:	95                   	xchg   ebp,eax
   14000b87f:	e2 ac                	loop   0x14000b82d
   14000b881:	88 d6                	mov    dh,dl
   14000b883:	fd                   	std
   14000b884:	4d e6 0a             	rex.WRB out 0xa,al
   14000b887:	29 f8                	sub    eax,edi
   14000b889:	04 e6                	add    al,0xe6
   14000b88b:	24 8a                	and    al,0x8a
   14000b88d:	65 15 a8 bf 33 de    	gs adc eax,0xde33bfa8
   14000b893:	d8 7b 0c             	fdivr  DWORD PTR [rbx+0xc]
   14000b896:	b9 b8 9f 4a f6       	mov    ecx,0xf64a9fb8
   14000b89b:	1f                   	(bad)
   14000b89c:	dd 44 bf cf          	fld    QWORD PTR [rdi+rdi*4-0x31]
   14000b8a0:	43 c5 da fe          	(bad)
   14000b8a4:	1f                   	(bad)
   14000b8a5:	df 04 17             	fild   WORD PTR [rdi+rdx*1]
   14000b8a8:	58                   	pop    rax
   14000b8a9:	55                   	push   rbp
   14000b8aa:	f6 7a 2e             	idiv   BYTE PTR [rdx+0x2e]
   14000b8ad:	aa                   	stos   BYTE PTR es:[rdi],al
   14000b8ae:	fd                   	std
   14000b8af:	2a db                	sub    bl,bl
   14000b8b1:	44 15 de 43 6c 37    	rex.R adc eax,0x376c43de
   14000b8b7:	ed                   	in     eax,dx
   14000b8b8:	d8 7e 05             	fdivr  DWORD PTR [rsi+0x5]
   14000b8bb:	b4 f6                	mov    ah,0xf6
   14000b8bd:	70 c6                	jo     0x14000b885
   14000b8bf:	61                   	(bad)
   14000b8c0:	06                   	(bad)
   14000b8c1:	25 9e 81 6c 2d       	and    eax,0x2d6c819e
   14000b8c6:	90                   	nop
   14000b8c7:	b2 48                	mov    dl,0x48
   14000b8c9:	6f                   	outs   dx,DWORD PTR ds:[rsi]
   14000b8ca:	f8                   	clc
   14000b8cb:	6b 86 8e 1f d8 8c 08 	imul   eax,DWORD PTR [rsi-0x7327e072],0x8
   14000b8d2:	6b b2 56 61 1c 1f a6 	imul   esi,DWORD PTR [rdx+0x1f1c6156],0xffffffa6
   14000b8d9:	3b 8b f8 75 9d 67    	cmp    ecx,DWORD PTR [rbx+0x679d75f8]
   14000b8df:	d1 59 bc             	rcr    DWORD PTR [rcx-0x44],1
   14000b8e2:	6a 7e                	push   0x7e
   14000b8e4:	14 e0                	adc    al,0xe0
   14000b8e6:	7f ad                	jg     0x14000b895
   14000b8e8:	63 ce                	movsxd ecx,esi
   14000b8ea:	79 44                	jns    0x14000b930
   14000b8ec:	54                   	push   rsp
   14000b8ed:	a7                   	cmps   DWORD PTR ds:[rsi],DWORD PTR es:[rdi]
   14000b8ee:	14 76                	adc    al,0x76
   14000b8f0:	2e e8 08 50 0a 30    	cs call 0x1700b08fe
   14000b8f6:	da 7c 94 f5          	fidivr DWORD PTR [rsp+rdx*4-0xb]
   14000b8fa:	4e cf                	rex.WRX iretq
   14000b8fc:	b9 2f 7d b4 f4       	mov    ecx,0xf4b47d2f
   14000b901:	ab                   	stos   DWORD PTR es:[rdi],eax
   14000b902:	39 93 b1 c1 04 5e    	cmp    DWORD PTR [rbx+0x5e04c1b1],edx
   14000b908:	ce                   	(bad)
   14000b909:	ec                   	in     al,dx
   14000b90a:	5f                   	pop    rdi
   14000b90b:	a7                   	cmps   DWORD PTR ds:[rsi],DWORD PTR es:[rdi]
   14000b90c:	06                   	(bad)
   14000b90d:	a9 28 13 98 70       	test   eax,0x70981328
   14000b912:	16                   	(bad)
   14000b913:	7a 40                	jp     0x14000b955
   14000b915:	a8 71                	test   al,0x71
   14000b917:	cc                   	int3
   14000b918:	73 c6                	jae    0x14000b8e0
   14000b91a:	45 91                	rex.RB xchg r9d,eax
   14000b91c:	1b 77 c9             	sbb    esi,DWORD PTR [rdi-0x37]
   14000b91f:	b2 33                	mov    dl,0x33
   14000b921:	5c                   	pop    rsp
   14000b922:	eb ff                	jmp    0x14000b923
   14000b924:	99                   	cdq
   14000b925:	93                   	xchg   ebx,eax
   14000b926:	fc                   	cld
   14000b927:	d2 7f da             	sar    BYTE PTR [rdi-0x26],cl
   14000b92a:	ee                   	out    dx,al
   14000b92b:	c1 fc ed             	sar    esp,0xed
   14000b92e:	27                   	(bad)
   14000b92f:	66 e3 fc             	data16 jrcxz 0x14000b92e
   14000b932:	e1 8c                	loope  0x14000b8c0
   14000b934:	a2 e2 50 db f4 fb 5c 	movabs ds:0x3cba5cfbf4db50e2,al
   14000b93b:	ba 3c 
   14000b93d:	80 a5 80 d9 35 ce 3e 	and    BYTE PTR [rbp-0x31ca2680],0x3e
   14000b944:	99                   	cdq
   14000b945:	1b a1 e0 41 c7 b2    	sbb    esp,DWORD PTR [rcx-0x4d38be20]
   14000b94b:	ba 6b ef ba 85       	mov    edx,0x85baef6b
   14000b950:	38 47 82             	cmp    BYTE PTR [rdi-0x7e],al
   14000b953:	81 6c 77 dc 9e c5 72 	sub    DWORD PTR [rdi+rsi*2-0x24],0x9672c59e
   14000b95a:	96 
   14000b95b:	b0 68                	mov    al,0x68
   14000b95d:	65 d4                	gs (bad)
   14000b95f:	f7 08 80 f3 5f c1    	test   DWORD PTR [rax],0xc15ff380
   14000b965:	23 53 dc             	and    edx,DWORD PTR [rbx-0x24]
   14000b968:	47 cf                	rex.RXB iret
   14000b96a:	9b                   	fwait
   14000b96b:	bf 78 c5 6a bc       	mov    edi,0xbc6ac578
   14000b970:	b5 b7                	mov    ch,0xb7
   14000b972:	43 58                	rex.XB pop r8
   14000b974:	5e                   	pop    rsi
   14000b975:	fe                   	(bad)
   14000b976:	ac                   	lods   al,BYTE PTR ds:[rsi]
   14000b977:	29 67 a0             	sub    DWORD PTR [rdi-0x60],esp
   14000b97a:	f0 24 03             	lock and al,0x3
   14000b97d:	ca fe ab             	retf   0xabfe
   14000b980:	4a 27                	rex.WX (bad)
   14000b982:	63 5d 26             	movsxd ebx,DWORD PTR [rbp+0x26]
   14000b985:	d4                   	(bad)
   14000b986:	c9                   	leave
   14000b987:	1d 85 0a bf b7       	sbb    eax,0xb7bf0a85
   14000b98c:	b5 f3                	mov    ch,0xf3
   14000b98e:	5c                   	pop    rsp
   14000b98f:	ae                   	scas   al,BYTE PTR es:[rdi]
   14000b990:	8d 67 44             	lea    esp,[rdi+0x44]
   14000b993:	ae                   	scas   al,BYTE PTR es:[rdi]
   14000b994:	58                   	pop    rax
   14000b995:	8c ca                	mov    edx,cs
   14000b997:	f9                   	stc
   14000b998:	4f 99                	rex.WRXB cqo
   14000b99a:	3e 82                	ds (bad)
   14000b99c:	24 c1                	and    al,0xc1
   14000b99e:	07                   	(bad)
   14000b99f:	f4                   	hlt
   14000b9a0:	6f                   	outs   dx,DWORD PTR ds:[rsi]
   14000b9a1:	4e 96                	rex.WRX xchg rsi,rax
   14000b9a3:	36 b4 18             	ss mov ah,0x18
   14000b9a6:	00 c2                	add    dl,al
   14000b9a8:	98                   	cwde
   14000b9a9:	a1 75 2d 1d 1c 46 90 	movabs eax,ds:0x49a490461c1d2d75
   14000b9b0:	a4 49 
   14000b9b2:	c8 2e fe b4          	enter  0xfe2e,0xb4
   14000b9b6:	bf 12 6b 7b 8b       	mov    edi,0x8b7b6b12
   14000b9bb:	02 e9                	add    ch,cl
   14000b9bd:	27                   	(bad)
   14000b9be:	19 df                	sbb    edi,ebx
   14000b9c0:	13 a1 ff 8f 6d 66    	adc    esp,DWORD PTR [rcx+0x666d8fff]
   14000b9c6:	24 fa                	and    al,0xfa
   14000b9c8:	21 5d 27             	and    DWORD PTR [rbp+0x27],ebx
   14000b9cb:	93                   	xchg   ebx,eax
   14000b9cc:	7a c6                	jp     0x14000b994
   14000b9ce:	b7 32                	mov    bh,0x32
   14000b9d0:	28 54 84 2d          	sub    BYTE PTR [rsp+rax*4+0x2d],dl
   14000b9d4:	ae                   	scas   al,BYTE PTR es:[rdi]
   14000b9d5:	91                   	xchg   ecx,eax
   14000b9d6:	cc                   	int3
   14000b9d7:	ae                   	scas   al,BYTE PTR es:[rdi]
   14000b9d8:	bc 25 5e 15 a9       	mov    esp,0xa9155e25
   14000b9dd:	c2 21 c4             	ret    0xc421
   14000b9e0:	6c                   	ins    BYTE PTR es:[rdi],dx
   14000b9e1:	ba 8a 58 4a 02       	mov    edx,0x24a588a
   14000b9e6:	ea                   	(bad)
   14000b9e7:	b1 7f                	mov    cl,0x7f
   14000b9e9:	4b 63 86 a4 c3 9e 32 	rex.WXB movsxd rax,DWORD PTR [r14+0x329ec3a4]
   14000b9f0:	9f                   	lahf
   14000b9f1:	99                   	cdq
   14000b9f2:	f3 f5                	repz cmc
   14000b9f4:	0a df                	or     bl,bh
   14000b9f6:	0a 84 08 3a 6c 47 f9 	or     al,BYTE PTR [rax+rcx*1-0x6b893c6]
   14000b9fd:	2a 62 2e             	sub    ah,BYTE PTR [rdx+0x2e]
   14000ba00:	4f c1 9f a3 71 e2 1b 	rex.WRXB rcr QWORD PTR [r15+0x1be271a3],0x1b
   14000ba07:	1b 
   14000ba08:	ad                   	lods   eax,DWORD PTR ds:[rsi]
   14000ba09:	e4 3c                	in     al,0x3c
   14000ba0b:	1f                   	(bad)
   14000ba0c:	fe                   	(bad)
   14000ba0d:	b7 45                	mov    bh,0x45
   14000ba0f:	af                   	scas   eax,DWORD PTR es:[rdi]
   14000ba10:	40 b9 11 cf c6 01    	rex mov ecx,0x1c6cf11
   14000ba16:	be 8e 07 6f 88       	mov    esi,0x886f078e
   14000ba1b:	7c 15                	jl     0x14000ba32
   14000ba1d:	a9 51 ae a2 95       	test   eax,0x95a2ae51
   14000ba22:	68 bf d7 9c 0a       	push   0xa9cd7bf
   14000ba27:	cc                   	int3
   14000ba28:	75 b7                	jne    0x14000b9e1
   14000ba2a:	e0 10                	loopne 0x14000ba3c
   14000ba2c:	30 63 05             	xor    BYTE PTR [rbx+0x5],ah
   14000ba2f:	2d aa 6b b6 69       	sub    eax,0x69b66baa
   14000ba34:	05 65 a6 1d dd       	add    eax,0xdd1da665
   14000ba39:	89 2e                	mov    DWORD PTR [rsi],ebp
   14000ba3b:	e8 36 f3 89 75       	call   0x1b58aad76
   14000ba40:	24 9e                	and    al,0x9e
   14000ba42:	55                   	push   rbp
   14000ba43:	2c cf                	sub    al,0xcf
   14000ba45:	c2 28 cf             	ret    0xcf28
   14000ba48:	e6 5d                	out    0x5d,al
   14000ba4a:	bf e5 09 dd a2       	mov    edi,0xa2dd09e5
   14000ba4f:	e5 8a                	in     eax,0x8a
   14000ba51:	f1                   	int1
   14000ba52:	12 2a                	adc    ch,BYTE PTR [rdx]
   14000ba54:	10 1e                	adc    BYTE PTR [rsi],bl
   14000ba56:	41 19 9f c3 3c 4a 91 	sbb    DWORD PTR [r15-0x6eb5c33d],ebx
   14000ba5d:	2c 29                	sub    al,0x29
   14000ba5f:	70 0c                	jo     0x14000ba6d
   14000ba61:	f6 e2                	mul    dl
   14000ba63:	b7 9c                	mov    bh,0x9c
   14000ba65:	3e 91                	ds xchg ecx,eax
   14000ba67:	83 90 fe 7c 20 7f 54 	adc    DWORD PTR [rax+0x7f207cfe],0x54
   14000ba6e:	56                   	push   rsi
   14000ba6f:	c9                   	leave
   14000ba70:	87 b8 37 66 c0 b5    	xchg   DWORD PTR [rax-0x4a3f99c9],edi
   14000ba76:	6e                   	outs   dx,BYTE PTR ds:[rsi]
   14000ba77:	32 b1 e7 0a 8e 44    	xor    dh,BYTE PTR [rcx+0x448e0ae7]
   14000ba7d:	35 9a b8 64 c4       	xor    eax,0xc464b89a
   14000ba82:	57                   	push   rdi
   14000ba83:	89 b3 42 63 91 33    	mov    DWORD PTR [rbx+0x33916342],esi
   14000ba89:	08 dc                	or     ah,bl
   14000ba8b:	10 38                	adc    BYTE PTR [rax],bh
   14000ba8d:	b6 1a                	mov    dh,0x1a
   14000ba8f:	be ea f7 14 81       	mov    esi,0x8114f7ea
   14000ba94:	d4                   	(bad)
   14000ba95:	e6 cd                	out    0xcd,al
   14000ba97:	41 86 0a             	xchg   BYTE PTR [r10],cl
   14000ba9a:	5f                   	pop    rdi
   14000ba9b:	88 18                	mov    BYTE PTR [rax],bl
   14000ba9d:	6f                   	outs   dx,DWORD PTR ds:[rsi]
   14000ba9e:	cf                   	iret
   14000ba9f:	d2 5f 9b             	rcr    BYTE PTR [rdi-0x65],cl
   14000baa2:	50                   	push   rax
   14000baa3:	52                   	push   rdx
   14000baa4:	c8 62 79 12          	enter  0x7962,0x12
   14000baa8:	43                   	rex.XB
   14000baa9:	48 d1 09             	ror    QWORD PTR [rcx],1
   14000baac:	7e 76                	jle    0x14000bb24
   14000baae:	fb                   	sti
   14000baaf:	78 ef                	js     0x14000baa0
   14000bab1:	f2 e4 c4             	repnz in al,0xc4
   14000bab4:	a2 a8 6a f9 60 81 ac 	movabs ds:0xa4ddac8160f96aa8,al
   14000babb:	dd a4 
   14000babd:	3a cc                	cmp    cl,ah
   14000babf:	3e 4d 1f             	ds rex.WRB (bad)
   14000bac2:	52                   	push   rdx
   14000bac3:	27                   	(bad)
   14000bac4:	ec                   	in     al,dx
   14000bac5:	f7 fa                	idiv   edx
   14000bac7:	98                   	cwde
   14000bac8:	98                   	cwde
   14000bac9:	a2 44 7f 58 86 fa 48 	movabs ds:0x85f448fa86587f44,al
   14000bad0:	f4 85 
   14000bad2:	e1 df                	loope  0x14000bab3
   14000bad4:	9c                   	pushf
   14000bad5:	05 e2 20 0e 4b       	add    eax,0x4b0e20e2
   14000bada:	88 41 a1             	mov    BYTE PTR [rcx-0x5f],al
   14000badd:	46                   	rex.RX
   14000bade:	40 61                	rex (bad)
   14000bae0:	dc 44 60 ca          	fadd   QWORD PTR [rax+riz*2-0x36]
   14000bae4:	f8                   	clc
   14000bae5:	71 c3                	jno    0x14000baaa
   14000bae7:	1a 7a ed             	sbb    bh,BYTE PTR [rdx-0x13]
   14000baea:	4a 32 23             	rex.WX xor spl,BYTE PTR [rbx]
   14000baed:	44 c8 69 bb 23       	rex.R enter 0xbb69,0x23
   14000baf2:	ed                   	in     eax,dx
   14000baf3:	ba 74 db e6 9e       	mov    edx,0x9ee6db74
   14000baf8:	62 e3 c4 63 08       	(bad)
   14000bafd:	16                   	(bad)
   14000bafe:	a4                   	movs   BYTE PTR es:[rdi],BYTE PTR ds:[rsi]
   14000baff:	75 6b                	jne    0x14000bb6c
   14000bb01:	60                   	(bad)
   14000bb02:	6f                   	outs   dx,DWORD PTR ds:[rsi]
   14000bb03:	ce                   	(bad)
   14000bb04:	dd e3                	fucom  st(3)
   14000bb06:	77 50                	ja     0x14000bb58
   14000bb08:	39 34 f4             	cmp    DWORD PTR [rsp+rsi*8],esi
   14000bb0b:	17                   	(bad)
   14000bb0c:	28 62 f4             	sub    BYTE PTR [rdx-0xc],ah
   14000bb0f:	28 36                	sub    BYTE PTR [rsi],dh
   14000bb11:	e7 96                	out    0x96,eax
   14000bb13:	33 da                	xor    ebx,edx
   14000bb15:	a7                   	cmps   DWORD PTR ds:[rsi],DWORD PTR es:[rdi]
   14000bb16:	4b e0 1c             	rex.WXB loopne 0x14000bb35
   14000bb19:	b5 af                	mov    ch,0xaf
   14000bb1b:	43                   	rex.XB
   14000bb1c:	46                   	rex.RX
   14000bb1d:	f0 24 1a             	lock and al,0x1a
   14000bb20:	d9 b6 90 71 50 0a    	fnstenv [rsi+0xa507190]
   14000bb26:	33 47 11             	xor    eax,DWORD PTR [rdi+0x11]
   14000bb29:	e9 d4 ee f1 58       	jmp    0x198f2aa02
   14000bb2e:	46 56                	rex.RX push rsi
   14000bb30:	8f                   	(bad)
   14000bb31:	f7 4a 61 0e 74 9b 45 	test   DWORD PTR [rdx+0x61],0x459b740e
   14000bb38:	af                   	scas   eax,DWORD PTR es:[rdi]
   14000bb39:	1e                   	(bad)
   14000bb3a:	ee                   	out    dx,al
   14000bb3b:	c9                   	leave
   14000bb3c:	90                   	nop
   14000bb3d:	32 69 1c             	xor    ch,BYTE PTR [rcx+0x1c]
   14000bb40:	d4                   	(bad)
   14000bb41:	96                   	xchg   esi,eax
   14000bb42:	b5 4b                	mov    ch,0x4b
   14000bb44:	f1                   	int1
   14000bb45:	3e 61                	ds (bad)
   14000bb47:	98                   	cwde
   14000bb48:	1a dd                	sbb    bl,ch
   14000bb4a:	03 cf                	add    ecx,edi
   14000bb4c:	31 63 9c             	xor    DWORD PTR [rbx-0x64],esp
   14000bb4f:	63 26                	movsxd esp,DWORD PTR [rsi]
   14000bb51:	65 ea                	gs (bad)
   14000bb53:	0f 4b 42 b7          	cmovnp eax,DWORD PTR [rdx-0x49]
   14000bb57:	77 5f                	ja     0x14000bbb8
   14000bb59:	34 e0                	xor    al,0xe0
   14000bb5b:	de 98 1b 40 c0 36    	ficomp WORD PTR [rax+0x36c0401b]
   14000bb61:	c8 2a d1 70          	enter  0xd12a,0x70
   14000bb65:	8d                   	lea    esi,(bad)
   14000bb66:	f6 5f 42             	neg    BYTE PTR [rdi+0x42]
   14000bb69:	11 2a                	adc    DWORD PTR [rdx],ebp
   14000bb6b:	c1 82 8f 55 30 d4 68 	rol    DWORD PTR [rdx-0x2bcfaa71],0x68
   14000bb72:	5d                   	pop    rbp
   14000bb73:	50                   	push   rax
   14000bb74:	70 2e                	jo     0x14000bba4
   14000bb76:	ad                   	lods   eax,DWORD PTR ds:[rsi]
   14000bb77:	1d e2 9f d9 84       	sbb    eax,0x84d99fe2
   14000bb7c:	01 5d 33             	add    DWORD PTR [rbp+0x33],ebx
   14000bb7f:	d2 b6 9a d8 9b ba    	shl    BYTE PTR [rsi-0x45642766],cl
   14000bb85:	b1 34                	mov    cl,0x34
   14000bb87:	7b 5f                	jnp    0x14000bbe8
   14000bb89:	3a 52 d7             	cmp    dl,BYTE PTR [rdx-0x29]
   14000bb8c:	2d ca eb 36 90       	sub    eax,0x9036ebca
   14000bb91:	e4 12                	in     al,0x12
   14000bb93:	c8 29 c7 5a          	enter  0xc729,0x5a
   14000bb97:	31 82 11 86 8d 3c    	xor    DWORD PTR [rdx+0x3c8d8611],eax
   14000bb9d:	e8 4a 70 b2 b8       	call   0xf8b32bec
   14000bba2:	6c                   	ins    BYTE PTR es:[rdi],dx
   14000bba3:	e8 05 19 1b 28       	call   0x1681bd4ad
   14000bba8:	a1 15 b9 3e 63 43 4b 	movabs eax,ds:0x1e9f4b43633eb915
   14000bbaf:	9f 1e 
   14000bbb1:	80 8e ea b9 57 d4 f9 	or     BYTE PTR [rsi-0x2ba84616],0xf9
   14000bbb8:	60                   	(bad)
   14000bbb9:	55                   	push   rbp
   14000bbba:	08 a4 0e 47 66 06 c3 	or     BYTE PTR [rsi+rcx*1-0x3cf999b9],ah
   14000bbc1:	08 94 5f ed 07 ea 05 	or     BYTE PTR [rdi+rbx*2+0x5ea07ed],dl
   14000bbc8:	17                   	(bad)
   14000bbc9:	df d1                	(bad)
   14000bbcb:	d0 c6                	rol    dh,1
   14000bbcd:	b1 e8                	mov    cl,0xe8
   14000bbcf:	94                   	xchg   esp,eax
   14000bbd0:	ea                   	(bad)
   14000bbd1:	30 ae a3 6a a9 23    	xor    BYTE PTR [rsi+0x23a96aa3],ch
   14000bbd7:	3d 19 14 cd e3       	cmp    eax,0xe3cd1419
   14000bbdc:	99                   	cdq
   14000bbdd:	a7                   	cmps   DWORD PTR ds:[rsi],DWORD PTR es:[rdi]
   14000bbde:	fd                   	std
   14000bbdf:	32 a3 ad b1 a4 fb    	xor    ah,BYTE PTR [rbx-0x45b4e53]
   14000bbe5:	75 25                	jne    0x14000bc0c
   14000bbe7:	0c d1                	or     al,0xd1
   14000bbe9:	0e                   	(bad)
   14000bbea:	11 3f                	adc    DWORD PTR [rdi],edi
   14000bbec:	1a 7a 29             	sbb    bh,BYTE PTR [rdx+0x29]
   14000bbef:	87 77 5f             	xchg   DWORD PTR [rdi+0x5f],esi
   14000bbf2:	9d                   	popf
   14000bbf3:	94                   	xchg   esp,eax
   14000bbf4:	75 11                	jne    0x14000bc07
   14000bbf6:	ec                   	in     al,dx
   14000bbf7:	ba cb 6c 58 a5       	mov    edx,0xa5586ccb
   14000bbfc:	53                   	push   rbx
   14000bbfd:	3b 65 22             	cmp    esp,DWORD PTR [rbp+0x22]
   14000bc00:	7e 94                	jle    0x14000bb96
   14000bc02:	44 0c 28             	rex.R or al,0x28
   14000bc05:	16                   	(bad)
   14000bc06:	6d                   	ins    DWORD PTR es:[rdi],dx
   14000bc07:	e9 82 21 5d 1d       	jmp    0x15d5ddd8e
   14000bc0c:	12 35 d3 64 6e 78    	adc    dh,BYTE PTR [rip+0x786e64d3]        # 0x1b86f20e5
   14000bc12:	f5                   	cmc
   14000bc13:	79 4a                	jns    0x14000bc5f
   14000bc15:	6e                   	outs   dx,BYTE PTR ds:[rsi]
   14000bc16:	48 1a 66 5a          	rex.W sbb spl,BYTE PTR [rsi+0x5a]
   14000bc1a:	aa                   	stos   BYTE PTR es:[rdi],al
   14000bc1b:	c1 f7 bd             	shl    edi,0xbd
   14000bc1e:	89 97 47 c8 e8 ea    	mov    DWORD PTR [rdi-0x151737b9],edx
   14000bc24:	f7 52 86             	not    DWORD PTR [rdx-0x7a]
   14000bc27:	3f                   	(bad)
   14000bc28:	ae                   	scas   al,BYTE PTR es:[rdi]
   14000bc29:	58                   	pop    rax
   14000bc2a:	06                   	(bad)
   14000bc2b:	f7 83 dc 82 8c 57 d4 	test   DWORD PTR [rbx+0x578c82dc],0x766593d4
   14000bc32:	93 65 76 
   14000bc35:	e1 86                	loope  0x14000bbbd
   14000bc37:	72 76                	jb     0x14000bcaf
   14000bc39:	b1 d6                	mov    cl,0xd6
   14000bc3b:	57                   	push   rdi
   14000bc3c:	66 8d a1 ce ee eb 39 	lea    sp,[rcx+0x39ebeece]
   14000bc43:	b1 ac                	mov    cl,0xac
   14000bc45:	92                   	xchg   edx,eax
   14000bc46:	b9 12 1b b4 88       	mov    ecx,0x88b41b12
   14000bc4b:	10 08                	adc    BYTE PTR [rax],cl
   14000bc4d:	35 b4 dd 79 da       	xor    eax,0xda79ddb4
   14000bc52:	4c bd 25 d0 c0 c6 88 	rex.WR movabs rbp,0xe9f57e88c6c0d025
   14000bc59:	7e f5 e9 
   14000bc5c:	50                   	push   rax
   14000bc5d:	7c 54                	jl     0x14000bcb3
   14000bc5f:	bc d1 35 98 9d       	mov    esp,0x9d9835d1
   14000bc64:	42 5b                	rex.X pop rbx
   14000bc66:	f3 c1 10 b6          	repz rcl DWORD PTR [rax],0xb6
   14000bc6a:	e2 d8                	loop   0x14000bc44
   14000bc6c:	0b a8 74 c8 7b 4a    	or     ebp,DWORD PTR [rax+0x4a7bc874]
   14000bc72:	87 44 87 8b          	xchg   DWORD PTR [rdi+rax*4-0x75],eax
   14000bc76:	2e a7                	cmps   DWORD PTR ds:[rsi],DWORD PTR es:[rdi]
   14000bc78:	7f a2                	jg     0x14000bc1c
   14000bc7a:	ce                   	(bad)
   14000bc7b:	1b 91 f7 38 04 28    	sbb    edx,DWORD PTR [rcx+0x280438f7]
   14000bc81:	bb 77 4d c9 e0       	mov    ebx,0xe0c94d77
   14000bc86:	4a 3f                	rex.WX (bad)
   14000bc88:	62 5f 69 7f cb       	(bad)
   14000bc8d:	22 0f                	and    cl,BYTE PTR [rdi]
   14000bc8f:	5a                   	pop    rdx
   14000bc90:	6c                   	ins    BYTE PTR es:[rdi],dx
   14000bc91:	4a 02 58 da          	rex.WX add bl,BYTE PTR [rax-0x26]
   14000bc95:	0a ef                	or     ch,bh
   14000bc97:	eb 53                	jmp    0x14000bcec
   14000bc99:	16                   	(bad)
   14000bc9a:	d5 03 af             	(bad)
   14000bc9d:	a6                   	cmps   BYTE PTR ds:[rsi],BYTE PTR es:[rdi]
   14000bc9e:	95                   	xchg   ebp,eax
   14000bc9f:	ed                   	in     eax,dx
   14000bca0:	7e c8                	jle    0x14000bc6a
   14000bca2:	db 40 88             	fild   DWORD PTR [rax-0x78]
   14000bca5:	93                   	xchg   ebx,eax
   14000bca6:	42 ad                	rex.X lods eax,DWORD PTR ds:[rsi]
   14000bca8:	06                   	(bad)
   14000bca9:	ad                   	lods   eax,DWORD PTR ds:[rsi]
   14000bcaa:	14 e5                	adc    al,0xe5
   14000bcac:	2e ae                	cs scas al,BYTE PTR es:[rdi]
   14000bcae:	57                   	push   rdi
   14000bcaf:	14 66                	adc    al,0x66
   14000bcb1:	af                   	scas   eax,DWORD PTR es:[rdi]
   14000bcb2:	cf                   	iret
   14000bcb3:	8c 0b                	mov    WORD PTR [rbx],cs
   14000bcb5:	4d 98                	rex.WRB cdqe
   14000bcb7:	3c c9                	cmp    al,0xc9
   14000bcb9:	03 f0                	add    esi,eax
   14000bcbb:	d5 d6 4b 50 21       	{rex2 0xd6} cmovnp r26d,DWORD PTR [r16+0x21]
   14000bcc0:	2e 1e                	cs (bad)
   14000bcc2:	df 74 03 62          	fbstp  TBYTE PTR [rbx+rax*1+0x62]
   14000bcc6:	ca 00 0e             	retf   0xe00
   14000bcc9:	eb f6                	jmp    0x14000bcc1
   14000bccb:	14 9a                	adc    al,0x9a
   14000bccd:	05 26 75 c8 87       	add    eax,0x87c87526
   14000bcd2:	0f 1f de             	nop    esi
   14000bcd5:	ca 88 dd             	retf   0xdd88
   14000bcd8:	f8                   	clc
   14000bcd9:	c1 62 ea a7          	shl    DWORD PTR [rdx-0x16],0xa7
   14000bcdd:	e5 6d                	in     eax,0x6d
   14000bcdf:	ab                   	stos   DWORD PTR es:[rdi],eax
   14000bce0:	80 00 bb             	add    BYTE PTR [rax],0xbb
   14000bce3:	9c                   	pushf
   14000bce4:	41 1d 7a de 69 e2    	rex.B sbb eax,0xe269de7a
   14000bcea:	d3 c6                	rol    esi,cl
   14000bcec:	30 7b 93             	xor    BYTE PTR [rbx-0x6d],bh
   14000bcef:	60                   	(bad)
   14000bcf0:	29 60 70             	sub    DWORD PTR [rax+0x70],esp
   14000bcf3:	91                   	xchg   ecx,eax
   14000bcf4:	bb 1f 07 88 b4       	mov    ebx,0xb488071f
   14000bcf9:	23 26                	and    esp,DWORD PTR [rsi]
   14000bcfb:	ce                   	(bad)
   14000bcfc:	e6 80                	out    0x80,al
   14000bcfe:	83 2f 04             	sub    DWORD PTR [rdi],0x4
   14000bd01:	6b e0 7c             	imul   esp,eax,0x7c
   14000bd04:	f8                   	clc
   14000bd05:	43 c6                	rex.XB (bad)
   14000bd07:	60                   	(bad)
   14000bd08:	33 a7 b4 20 d0 55    	xor    esp,DWORD PTR [rdi+0x55d020b4]
   14000bd0e:	f8                   	clc
   14000bd0f:	9b                   	fwait
   14000bd10:	2f                   	(bad)
   14000bd11:	f3 8f 85 63 99 f5 18 	repz pop QWORD PTR [rbp+0x18f59963]
   14000bd18:	ef                   	out    dx,eax
   14000bd19:	63 e9                	movsxd ebp,ecx
   14000bd1b:	75 65                	jne    0x14000bd82
   14000bd1d:	bb 36 06 09 83       	mov    ebx,0x83090636
   14000bd22:	25 10 5f 1b 7a       	and    eax,0x7a1b5f10
   14000bd27:	73 d0                	jae    0x14000bcf9
   14000bd29:	43 f7 1a             	rex.XB neg DWORD PTR [r10]
   14000bd2c:	be 70 f4 17 fb       	mov    esi,0xfb17f470
   14000bd31:	dd f3                	(bad)
   14000bd33:	b2 61                	mov    dl,0x61
   14000bd35:	ff f6                	push   rsi
   14000bd37:	b4 da                	mov    ah,0xda
   14000bd39:	9d                   	popf
   14000bd3a:	c7                   	(bad)
   14000bd3b:	da 73 b1             	fidiv  DWORD PTR [rbx-0x4f]
   14000bd3e:	db 6c 58 b9          	fld    TBYTE PTR [rax+rbx*2-0x47]
   14000bd42:	95                   	xchg   ebp,eax
   14000bd43:	f6 ef                	imul   bh
   14000bd45:	f0 a6                	lock cmps BYTE PTR ds:[rsi],BYTE PTR es:[rdi]
   14000bd47:	85 68 fe             	test   DWORD PTR [rax-0x2],ebp
   14000bd4a:	9b                   	fwait
   14000bd4b:	ef                   	out    dx,eax
   14000bd4c:	43 31 57 c0          	rex.XB xor DWORD PTR [r15-0x40],edx
   14000bd50:	a4                   	movs   BYTE PTR es:[rdi],BYTE PTR ds:[rsi]
   14000bd51:	de eb                	fsubp  st(3),st
   14000bd53:	14 91                	adc    al,0x91
   14000bd55:	f2 eb 9c             	bnd jmp 0x14000bcf4
   14000bd58:	c5 c2 9d             	(bad)
   14000bd5b:	e9 dd 74 7c 45       	jmp    0x1857d323d
   14000bd60:	b7 79                	mov    bh,0x79
   14000bd62:	e3 a9                	jrcxz  0x14000bd0d
   14000bd64:	0f b7 ff             	movzx  edi,di
   14000bd67:	b0 3d                	mov    al,0x3d
   14000bd69:	54                   	push   rsp
   14000bd6a:	cb                   	retf
   14000bd6b:	86 b7 f5 6a 24 b2    	xchg   BYTE PTR [rdi-0x4ddb950b],dh
   14000bd71:	c6                   	(bad)
   14000bd72:	1c f6                	sbb    al,0xf6
   14000bd74:	72 d1                	jb     0x14000bd47
   14000bd76:	fe 8a e1 3c 74 33    	dec    BYTE PTR [rdx+0x33743ce1]
   14000bd7c:	72 97                	jb     0x14000bd15
   14000bd7e:	1e                   	(bad)
   14000bd7f:	36 eb 62             	ss jmp 0x14000bde4
   14000bd82:	a8 0d                	test   al,0xd
   14000bd84:	74 09                	je     0x14000bd8f
   14000bd86:	c7                   	(bad)
   14000bd87:	8a 16                	mov    dl,BYTE PTR [rsi]
   14000bd89:	03 09                	add    ecx,DWORD PTR [rcx]
   14000bd8b:	d3 9d 65 35 7e 8d    	rcr    DWORD PTR [rbp-0x7281ca9b],cl
   14000bd91:	e1 fe                	loope  0x14000bd91
   14000bd93:	ed                   	in     eax,dx
   14000bd94:	eb 70                	jmp    0x14000be06
   14000bd96:	ea                   	(bad)
   14000bd97:	e2 6d                	loop   0x14000be06
   14000bd99:	c8 4b 1e a9          	enter  0x1e4b,0xa9
   14000bd9d:	42 58                	rex.X pop rax
   14000bd9f:	c1 c2 68             	rol    edx,0x68
   14000bda2:	01 af 28 10 81 16    	add    DWORD PTR [rdi+0x16811028],ebp
   14000bda8:	d3 07                	rol    DWORD PTR [rdi],cl
   14000bdaa:	aa                   	stos   BYTE PTR es:[rdi],al
   14000bdab:	6e                   	outs   dx,BYTE PTR ds:[rsi]
   14000bdac:	e1 61                	loope  0x14000be0f
   14000bdae:	5f                   	pop    rdi
   14000bdaf:	17                   	(bad)
   14000bdb0:	d6                   	(bad)
   14000bdb1:	7f f4                	jg     0x14000bda7
   14000bdb3:	77 d4                	ja     0x14000bd89
   14000bdb5:	d4                   	(bad)
   14000bdb6:	e3 ef                	jrcxz  0x14000bda7
   14000bdb8:	90                   	nop
   14000bdb9:	18 2d c4 f3 ec 7e    	sbb    BYTE PTR [rip+0x7eecf3c4],ch        # 0x1beedb183
   14000bdbf:	f9                   	stc
   14000bdc0:	b5 63                	mov    ch,0x63
   14000bdc2:	7e f9                	jle    0x14000bdbd
   14000bdc4:	b7 ac                	mov    bh,0xac
   14000bdc6:	2f                   	(bad)
   14000bdc7:	5b                   	pop    rbx
   14000bdc8:	e9 35 c9 1e 32       	jmp    0x1721f8702
   14000bdcd:	4e 9c                	rex.WRX pushf
   14000bdcf:	d2 02                	rol    BYTE PTR [rdx],cl
   14000bdd1:	29 58 f8             	sub    DWORD PTR [rax-0x8],ebx
   14000bdd4:	a3 3a 24 a5 8b 8a 3c 	movabs ds:0x87bd3c8a8ba5243a,eax
   14000bddb:	bd 87 
   14000bddd:	36 36 d9 f7          	ss ss fincstp
   14000bde1:	ae                   	scas   al,BYTE PTR es:[rdi]
   14000bde2:	cb                   	retf
   14000bde3:	0b 9d 77 81 19 b9    	or     ebx,DWORD PTR [rbp-0x46e67e89]
   14000bde9:	1a 4f 76             	sbb    cl,BYTE PTR [rdi+0x76]
   14000bdec:	7c 02                	jl     0x14000bdf0
   14000bdee:	55                   	push   rbp
   14000bdef:	1c 0c                	sbb    al,0xc
   14000bdf1:	6f                   	outs   dx,DWORD PTR ds:[rsi]
   14000bdf2:	c5 16 c6             	(bad)
   14000bdf5:	d7                   	xlat   BYTE PTR ds:[rbx]
   14000bdf6:	40 98                	rex cwde
   14000bdf8:	d0 c1                	rol    cl,1
   14000bdfa:	a4                   	movs   BYTE PTR es:[rdi],BYTE PTR ds:[rsi]
   14000bdfb:	40 15 e1 7c 0e 8b    	rex adc eax,0x8b0e7ce1
   14000be01:	3f                   	(bad)
   14000be02:	3b b7 13 ee 6b 58    	cmp    esi,DWORD PTR [rdi+0x586bee13]
   14000be08:	b8 08 93 a9 cf       	mov    eax,0xcfa99308
   14000be0d:	3e 00 a3 c6 22 65 57 	ds add BYTE PTR [rbx+0x576522c6],ah
   14000be14:	f2 3c 58             	repnz cmp al,0x58
   14000be17:	24 b6                	and    al,0xb6
   14000be19:	9f                   	lahf
   14000be1a:	fe 81 ef 83 39 af    	inc    BYTE PTR [rcx-0x50c67c11]
   14000be20:	9a                   	(bad)
   14000be21:	e9 9d de 81 11       	jmp    0x151829cc3
   14000be26:	33 7e c6             	xor    edi,DWORD PTR [rsi-0x3a]
   14000be29:	07                   	(bad)
   14000be2a:	e8 7a 27 b6 e5       	call   0x125b6e5a9
   14000be2f:	bc 70 79 d2 d5       	mov    esp,0xd5d27970
   14000be34:	1a 85 42 c8 e0 c7    	sbb    al,BYTE PTR [rbp-0x381f37be]
   14000be3a:	87 45 bf             	xchg   DWORD PTR [rbp-0x41],eax
   14000be3d:	40 77 d4             	rex ja 0x14000be14
   14000be40:	f6 be 0d ef a4 4f    	idiv   BYTE PTR [rsi+0x4fa4ef0d]
   14000be46:	57                   	push   rdi
   14000be47:	b1 97                	mov    cl,0x97
   14000be49:	ca af 8d             	retf   0x8daf
   14000be4c:	2f                   	(bad)
   14000be4d:	0d 41 cc 35 4c       	or     eax,0x4c35cc41
   14000be52:	02 6e c8             	add    ch,BYTE PTR [rsi-0x38]
   14000be55:	b8 0c d7 bc 2c       	mov    eax,0x2cbcd70c
   14000be5a:	1f                   	(bad)
   14000be5b:	63 cb                	movsxd ecx,ebx
   14000be5d:	d7                   	xlat   BYTE PTR ds:[rbx]
   14000be5e:	6a 13                	push   0x13
   14000be60:	16                   	(bad)
   14000be61:	be 4c 46 86 3c       	mov    esi,0x3c86464c
   14000be66:	21 da                	and    edx,ebx
   14000be68:	c4                   	(bad)
   14000be69:	7d 36                	jge    0x14000bea1
   14000be6b:	cd 43                	int    0x43
   14000be6d:	ac                   	lods   al,BYTE PTR ds:[rsi]
   14000be6e:	05 bb 56 95 44       	add    eax,0x449556bb
   14000be73:	4a                   	rex.WX
   14000be74:	4c 72 35             	rex.WR jb 0x14000beac
   14000be77:	44                   	rex.R
   14000be78:	40 1c c8             	rex sbb al,0xc8
   14000be7b:	53                   	push   rbx
   14000be7c:	cd e2                	int    0xe2
   14000be7e:	98                   	cwde
   14000be7f:	59                   	pop    rcx
   14000be80:	64 5f                	fs pop rdi
   14000be82:	2c 5e                	sub    al,0x5e
   14000be84:	9b                   	fwait
   14000be85:	b8 4a c6 6b 6b       	mov    eax,0x6b6bc64a
   14000be8a:	ea                   	(bad)
   14000be8b:	01 d5                	add    ebp,edx
   14000be8d:	07                   	(bad)
   14000be8e:	81 ab ab 52 7f 16 6a 	sub    DWORD PTR [rbx+0x167f52ab],0x7af0356a
   14000be95:	35 f0 7a 
   14000be98:	6e                   	outs   dx,BYTE PTR ds:[rsi]
   14000be99:	84 b5 ef fd 62 21    	test   BYTE PTR [rbp+0x2162fdef],dh
   14000be9f:	17                   	(bad)
   14000bea0:	28 7a 81             	sub    BYTE PTR [rdx-0x7f],bh
   14000bea3:	42 f6 73 b5          	rex.X div BYTE PTR [rbx-0x4b]
   14000bea7:	7f bd                	jg     0x14000be66
   14000bea9:	7b 72                	jnp    0x14000bf1d
   14000beab:	f9                   	stc
   14000beac:	74 d7                	je     0x14000be85
   14000beae:	2d 81 43 9b ec       	sub    eax,0xec9b4381
   14000beb3:	bb 95 95 cf 13       	mov    ebx,0x13cf9595
   14000beb8:	a9 01 31 06 11       	test   eax,0x11063101
   14000bebd:	1b 64 d0 31          	sbb    esp,DWORD PTR [rax+rdx*8+0x31]
   14000bec1:	85 56 72             	test   DWORD PTR [rsi+0x72],edx
   14000bec4:	a1 39 75 93 2d ac 5b 	movabs eax,ds:0x532c5bac2d937539
   14000becb:	2c 53 
   14000becd:	b9 71 a5 59 a6       	mov    ecx,0xa659a571
   14000bed2:	96                   	xchg   esi,eax
   14000bed3:	be f9 4e c0 eb       	mov    esi,0xebc04ef9
   14000bed8:	84 df                	test   bh,bl
   14000beda:	35 b9 11 66 ba       	xor    eax,0xba6611b9
   14000bedf:	26 50                	es push rax
   14000bee1:	40 9e                	rex sahf
   14000bee3:	26 d9 df             	es (bad)
   14000bee6:	29 76 c6             	sub    DWORD PTR [rsi-0x3a],esi
   14000bee9:	3f                   	(bad)
   14000beea:	e5 a6                	in     eax,0xa6
   14000beec:	5b                   	pop    rbx
   14000beed:	7c 9a                	jl     0x14000be89
   14000beef:	2c b0                	sub    al,0xb0
   14000bef1:	21 bb 70 29 e6 d0    	and    DWORD PTR [rbx-0x2f19d690],edi
   14000bef7:	51                   	push   rcx
   14000bef8:	d1 98 96 92 db 02    	rcr    DWORD PTR [rax+0x2db9296],1
   14000befe:	bd 1c f9 d8 56       	mov    ebp,0x56d8f91c
   14000bf03:	3b 8e 29 f8 21 7f    	cmp    ecx,DWORD PTR [rsi+0x7f21f829]
   14000bf09:	4f 77 53             	rex.WRXB ja 0x14000bf5f
   14000bf0c:	ec                   	in     al,dx
   14000bf0d:	a7                   	cmps   DWORD PTR ds:[rsi],DWORD PTR es:[rdi]
   14000bf0e:	14 94                	adc    al,0x94
   14000bf10:	30 28                	xor    BYTE PTR [rax],ch
   14000bf12:	51                   	push   rcx
   14000bf13:	2a 70 89             	sub    dh,BYTE PTR [rax-0x77]
   14000bf16:	73 bb                	jae    0x14000bed3
   14000bf18:	13 6c 0e 90          	adc    ebp,DWORD PTR [rsi+rcx*1-0x70]
   14000bf1c:	79 1d                	jns    0x14000bf3b
   14000bf1e:	8b c4                	mov    eax,esp
   14000bf20:	c0 c4 69             	rol    ah,0x69
   14000bf23:	b8 bc 9f 31 a7       	mov    eax,0xa7319fbc
   14000bf28:	31 05 60 f2 a4 57    	xor    DWORD PTR [rip+0x57a4f260],eax        # 0x197a5b18e
   14000bf2e:	ef                   	out    dx,eax
   14000bf2f:	24 49                	and    al,0x49
   14000bf31:	c9                   	leave
   14000bf32:	ff                   	call   (bad)
   14000bf33:	de f4                	fdivrp st(4),st
   14000bf35:	bd b8 fe f8 3d       	mov    ebp,0x3df8feb8
   14000bf3a:	19 1a                	sbb    DWORD PTR [rdx],ebx
   14000bf3c:	a1 07 10 f6 ac a3 50 	movabs eax,ds:0x856d50a3acf61007
   14000bf43:	6d 85 
   14000bf45:	aa                   	stos   BYTE PTR es:[rdi],al
   14000bf46:	d9 f1                	fyl2x
   14000bf48:	de 11                	ficom  WORD PTR [rcx]
   14000bf4a:	83 bc e5 a7 8b 9c 7e 	cmp    DWORD PTR [rbp+riz*8+0x7e9c8ba7],0x42
   14000bf51:	42 
   14000bf52:	8b b5 c2 17 db 24    	mov    esi,DWORD PTR [rbp+0x24db17c2]
   14000bf58:	52                   	push   rdx
   14000bf59:	76 d5                	jbe    0x14000bf30
   14000bf5b:	ae                   	scas   al,BYTE PTR es:[rdi]
   14000bf5c:	25 8a 33 8e d8       	and    eax,0xd88e338a
   14000bf61:	9b                   	fwait
   14000bf62:	e9 8b b0 30 89       	jmp    0xc9316ff2
   14000bf67:	b1 60                	mov    cl,0x60
   14000bf69:	ad                   	lods   eax,DWORD PTR ds:[rsi]
   14000bf6a:	0b 3c d8             	or     edi,DWORD PTR [rax+rbx*8]
   14000bf6d:	b7 23                	mov    bh,0x23
   14000bf6f:	ec                   	in     al,dx
   14000bf70:	33 c6                	xor    eax,esi
   14000bf72:	6e                   	outs   dx,BYTE PTR ds:[rsi]
   14000bf73:	46 7b 1a             	rex.RX jnp 0x14000bf90
   14000bf76:	73 61                	jae    0x14000bfd9
   14000bf78:	48 52                	rex.W push rdx
   14000bf7a:	5d                   	pop    rbp
   14000bf7b:	93                   	xchg   ebx,eax
   14000bf7c:	d8 5c 57 bb          	fcomp  DWORD PTR [rdi+rdx*2-0x45]
   14000bf80:	33 d0                	xor    edx,eax
   14000bf82:	6f                   	outs   dx,DWORD PTR ds:[rsi]
   14000bf83:	5c                   	pop    rsp
   14000bf84:	2d 61 fd 0a 6f       	sub    eax,0x6f0afd61
   14000bf89:	33 79 36             	xor    edi,DWORD PTR [rcx+0x36]
   14000bf8c:	c3                   	ret
   14000bf8d:	87 21                	xchg   DWORD PTR [rcx],esp
   14000bf8f:	44                   	rex.R
   14000bf90:	2e 07                	cs (bad)
   14000bf92:	c5 80 42             	(bad)
   14000bf95:	eb 63                	jmp    0x14000bffa
   14000bf97:	fb                   	sti
   14000bf98:	3d 9c 63 a4 87       	cmp    eax,0x87a4639c
   14000bf9d:	c1 8c f9 88 98 26 e0 	ror    DWORD PTR [rcx+rdi*8-0x1fd96778],0xde
   14000bfa4:	de 
   14000bfa5:	39 cf                	cmp    edi,ecx
   14000bfa7:	99                   	cdq
   14000bfa8:	e8 4a 5d 28 df       	call   0x11f291cf7
   14000bfad:	58                   	pop    rax
   14000bfae:	21 0f                	and    DWORD PTR [rdi],ecx
   14000bfb0:	a5                   	movs   DWORD PTR es:[rdi],DWORD PTR ds:[rsi]
   14000bfb1:	08 b6 16 8c 38 40    	or     BYTE PTR [rsi+0x40388c16],dh
   14000bfb7:	c1 b0 82 75 fe db 5b 	shl    DWORD PTR [rax-0x24018a7e],0x5b
   14000bfbe:	a3 43 36 a5 ba c8 02 	movabs ds:0x7b3b02c8baa53643,eax
   14000bfc5:	3b 7b 
   14000bfc7:	f9                   	stc
   14000bfc8:	a8 0b                	test   al,0xb
   14000bfca:	79 cb                	jns    0x14000bf97
   14000bfcc:	8d                   	lea    esp,(bad)
   14000bfcd:	e7 e4                	out    0xe4,eax
   14000bfcf:	c0 b4 57 80 38 c7 eb 	shl    BYTE PTR [rdi+rdx*2-0x1438c780],0x7e
   14000bfd6:	7e 
   14000bfd7:	67 e6 82             	addr32 out 0x82,al
   14000bfda:	9d                   	popf
   14000bfdb:	19 5e e0             	sbb    DWORD PTR [rsi-0x20],ebx
   14000bfde:	66 38 94 71 cc 49 02 	data16 cmp BYTE PTR [rcx+rsi*2+0x730249cc],dl
   14000bfe5:	73 
   14000bfe6:	46 cc                	rex.RX int3
   14000bfe8:	53                   	push   rbx
   14000bfe9:	a8 ee                	test   al,0xee
   14000bfeb:	5c                   	pop    rsp
   14000bfec:	02 95 9b 89 7b 17    	add    dl,BYTE PTR [rbp+0x177b899b]
   14000bff2:	f8                   	clc
   14000bff3:	5b                   	pop    rbx
   14000bff4:	44 cc                	rex.R int3
   14000bff6:	2f                   	(bad)
   14000bff7:	01 15 8d 30 3d 4d    	add    DWORD PTR [rip+0x4d3d308d],edx        # 0x18d3df08a
   14000bffd:	94                   	xchg   esp,eax
   14000bffe:	83 98 5a 5c 76 ba b9 	sbb    DWORD PTR [rax-0x4589a3a6],0xffffffb9
   14000c005:	38 7c 69 06          	cmp    BYTE PTR [rcx+rbp*2+0x6],bh
   14000c009:	ce                   	(bad)
   14000c00a:	76 c5                	jbe    0x14000bfd1
   14000c00c:	61                   	(bad)
   14000c00d:	d7                   	xlat   BYTE PTR ds:[rbx]
   14000c00e:	31 f8                	xor    eax,edi
   14000c010:	bb b0 9d e9 49       	mov    ebx,0x49e99db0
   14000c015:	d8 35 4b 29 a5 68    	fdiv   DWORD PTR [rip+0x68a5294b]        # 0x1a8a5e966
   14000c01b:	a3 9c 5c 58 5d d8 76 	movabs ds:0x7ebb76d85d585c9c,eax
   14000c022:	bb 7e 
   14000c024:	34 8b                	xor    al,0x8b
   14000c026:	29 08                	sub    DWORD PTR [rax],ecx
   14000c028:	66 b6 a2             	data16 mov dh,0xa2
   14000c02b:	07                   	(bad)
   14000c02c:	12 6c ae df          	adc    ch,BYTE PTR [rsi+rbp*4-0x21]
   14000c030:	03 4f 37             	add    ecx,DWORD PTR [rdi+0x37]
   14000c033:	38 9a af 87 33 6a    	cmp    BYTE PTR [rdx+0x6a3387af],bl
   14000c039:	8e 7c a1 1a          	mov    ?,WORD PTR [rcx+riz*4+0x1a]
   14000c03d:	f5                   	cmc
   14000c03e:	97                   	xchg   edi,eax
   14000c03f:	6f                   	outs   dx,DWORD PTR ds:[rsi]
   14000c040:	32 d1                	xor    dl,cl
   14000c042:	55                   	push   rbp
   14000c043:	0a 25 c1 93 38 9e    	or     ah,BYTE PTR [rip+0xffffffff9e3893c1]        # 0xde39540a
   14000c049:	bf e1 fe d8 99       	mov    edi,0x99d8fee1
   14000c04e:	24 4f                	and    al,0x4f
   14000c050:	c1 18 26             	rcr    DWORD PTR [rax],0x26
   14000c053:	09 7b 66             	or     DWORD PTR [rbx+0x66],edi
   14000c056:	1b ad 1f 1a 0d ab    	sbb    ebp,DWORD PTR [rbp-0x54f2e5e1]
   14000c05c:	6c                   	ins    BYTE PTR es:[rdi],dx
   14000c05d:	ac                   	lods   al,BYTE PTR ds:[rsi]
   14000c05e:	a2 f7 1a 54 fc e0 ba 	movabs ds:0xe09bbae0fc541af7,al
   14000c065:	9b e0 
   14000c067:	b5 95                	mov    ch,0x95
   14000c069:	0a b4 2d 16 2f 91 21 	or     dh,BYTE PTR [rbp+rbp*1+0x21912f16]
   14000c070:	56                   	push   rsi
   14000c071:	ab                   	stos   DWORD PTR es:[rdi],eax
   14000c072:	5b                   	pop    rbx
   14000c073:	d9 b7 84 b4 9e 0c    	fnstenv [rdi+0xc9eb484]
   14000c079:	b5 48                	mov    ch,0x48
   14000c07b:	59                   	pop    rcx
   14000c07c:	14 96                	adc    al,0x96
   14000c07e:	7e 02                	jle    0x14000c082
   14000c080:	a9 fc 7d 0f 5c       	test   eax,0x5c0f7dfc
   14000c085:	7f 19                	jg     0x14000c0a0
   14000c087:	18 03                	sbb    BYTE PTR [rbx],al
   14000c089:	96                   	xchg   esi,eax
   14000c08a:	22 90 95 a3 7d 7d    	and    dl,BYTE PTR [rax+0x7d7da395]
   14000c090:	cf                   	iret
   14000c091:	e7 7e                	out    0x7e,eax
   14000c093:	2d d3 09 ef e6       	sub    eax,0xe6ef09d3
   14000c098:	7d 22                	jge    0x14000c0bc
   14000c09a:	0b c6                	or     eax,esi
   14000c09c:	1e                   	(bad)
   14000c09d:	1e                   	(bad)
   14000c09e:	0b bd e7 1e 2c 9d    	or     edi,DWORD PTR [rbp-0x62d3e119]
   14000c0a4:	02 fe                	add    bh,dh
   14000c0a6:	4a b7 9a             	rex.WX mov dil,0x9a
   14000c0a9:	51                   	push   rcx
   14000c0aa:	dd f2                	(bad)
   14000c0ac:	e1 6a                	loope  0x14000c118
   14000c0ae:	9a                   	(bad)
   14000c0af:	e3 f1                	jrcxz  0x14000c0a2
   14000c0b1:	44 39 66 bc          	cmp    DWORD PTR [rsi-0x44],r12d
   14000c0b5:	0c 3e                	or     al,0x3e
   14000c0b7:	92                   	xchg   edx,eax
   14000c0b8:	a3 4e 34 68 5c b9 28 	movabs ds:0x2db428b95c68344e,eax
   14000c0bf:	b4 2d 
   14000c0c1:	84 ba 99 4a e6 c3    	test   BYTE PTR [rdx-0x3c19b567],bh
   14000c0c7:	67 02 88 0c 0d 39 3f 	add    cl,BYTE PTR [eax+0x3f390d0c]
   14000c0ce:	3e 23 9a 0c dd 5e 2b 	ds and ebx,DWORD PTR [rdx+0x2b5edd0c]
   14000c0d5:	06                   	(bad)
   14000c0d6:	fe                   	(bad)
   14000c0d7:	f6 94 10 7c e8 66 2d 	not    BYTE PTR [rax+rdx*1+0x2d66e87c]
   14000c0de:	a7                   	cmps   DWORD PTR ds:[rsi],DWORD PTR es:[rdi]
   14000c0df:	f7 dc                	neg    esp
   14000c0e1:	85 70 6c             	test   DWORD PTR [rax+0x6c],esi
   14000c0e4:	ae                   	scas   al,BYTE PTR es:[rdi]
   14000c0e5:	70 0c                	jo     0x14000c0f3
   14000c0e7:	da 3b                	fidivr DWORD PTR [rbx]
   14000c0e9:	61                   	(bad)
   14000c0ea:	f3 68 9a 45 cc 8a    	repz push 0xffffffff8acc459a
   14000c0f0:	d1 0b                	ror    DWORD PTR [rbx],1
   14000c0f2:	27                   	(bad)
   14000c0f3:	e9 e3 7f 03 3a       	jmp    0x17a0440db
   14000c0f8:	b5 c1                	mov    ch,0xc1
   14000c0fa:	fd                   	std
   14000c0fb:	42                   	rex.X
   14000c0fc:	4c e5 7f             	rex.WR in eax,0x7f
   14000c0ff:	b9 8f cd 25 79       	mov    ecx,0x7925cd8f
   14000c104:	4f                   	rex.WRXB
   14000c105:	40                   	rex
   14000c106:	26 71 a2             	es jno 0x14000c0ab
   14000c109:	4e 95                	rex.WRX xchg rbp,rax
   14000c10b:	73 6f                	jae    0x14000c17c
   14000c10d:	92                   	xchg   edx,eax
   14000c10e:	45 0a 25 97 06 52 51 	or     r12b,BYTE PTR [rip+0x51520697]        # 0x19152c7ac
   14000c115:	87 30                	xchg   DWORD PTR [rax],esi
   14000c117:	cf                   	iret
   14000c118:	4f f7 96 02 42 86 5a 	rex.WRXB not QWORD PTR [r14+0x5a864202]
   14000c11f:	0b 18                	or     ebx,DWORD PTR [rax]
   14000c121:	c8 0f 42 23          	enter  0x420f,0x23
   14000c125:	db bd 77 9e 4d 06    	fstp   TBYTE PTR [rbp+0x64d9e77]
   14000c12b:	3b 89 95 1c 09 44    	cmp    ecx,DWORD PTR [rcx+0x44091c95]
   14000c131:	c3                   	ret
   14000c132:	6b fa 95             	imul   edi,edx,0xffffff95
   14000c135:	8b 7c 2b d5          	mov    edi,DWORD PTR [rbx+rbp*1-0x2b]
   14000c139:	a6                   	cmps   BYTE PTR ds:[rsi],BYTE PTR es:[rdi]
   14000c13a:	71 61                	jno    0x14000c19d
   14000c13c:	a6                   	cmps   BYTE PTR ds:[rsi],BYTE PTR es:[rdi]
   14000c13d:	df 00                	fild   WORD PTR [rax]
   14000c13f:	0a 18                	or     bl,BYTE PTR [rax]
   14000c141:	22 63 f8             	and    ah,BYTE PTR [rbx-0x8]
   14000c144:	4b eb d3             	rex.WXB jmp 0x14000c11a
   14000c147:	91                   	xchg   ecx,eax
   14000c148:	db eb                	fucomi st,st(3)
   14000c14a:	c0 e3 41             	shl    bl,0x41
   14000c14d:	31 81 76 e5 84 9f    	xor    DWORD PTR [rcx-0x607b1a8a],eax
   14000c153:	84 1b                	test   BYTE PTR [rbx],bl
   14000c155:	8f                   	(bad)
   14000c156:	2e 30 4c 0e 73       	cs xor BYTE PTR [rsi+rcx*1+0x73],cl
   14000c15b:	f8                   	clc
   14000c15c:	02 1b                	add    bl,BYTE PTR [rbx]
   14000c15e:	d7                   	xlat   BYTE PTR ds:[rbx]
   14000c15f:	18 24 95 12 4f 21 e9 	sbb    BYTE PTR [rdx*4-0x16deb0ee],ah
   14000c166:	2d 50 d6 d4 bc       	sub    eax,0xbcd4d650
   14000c16b:	36 52                	ss push rdx
   14000c16d:	a2 17 0e 40 0f 82 af 	movabs ds:0x635faf820f400e17,al
   14000c174:	5f 63 
   14000c176:	72 07                	jb     0x14000c17f
   14000c178:	1d 7c bb 2b ad       	sbb    eax,0xad2bbb7c
   14000c17d:	5e                   	pop    rsi
   14000c17e:	a4                   	movs   BYTE PTR es:[rdi],BYTE PTR ds:[rsi]
   14000c17f:	94                   	xchg   esp,eax
   14000c180:	89 2e                	mov    DWORD PTR [rsi],ebp
   14000c182:	60                   	(bad)
   14000c183:	45 9e                	rex.RB sahf
   14000c185:	87 35 51 b8 73 dd    	xchg   DWORD PTR [rip+0xffffffffdd73b851],esi        # 0x11d7479dc
   14000c18b:	2b 69 9b             	sub    ebp,DWORD PTR [rcx-0x65]
   14000c18e:	82                   	(bad)
   14000c18f:	1d 16 4e 57 a9       	sbb    eax,0xa9574e16
   14000c194:	79 d4                	jns    0x14000c16a
   14000c196:	fb                   	sti
   14000c197:	b5 ab                	mov    ch,0xab
   14000c199:	7b 11                	jnp    0x14000c1ac
   14000c19b:	8b 51 d6             	mov    edx,DWORD PTR [rcx-0x2a]
   14000c19e:	86 ee                	xchg   dh,ch
   14000c1a0:	cc                   	int3
   14000c1a1:	8c 59 a8             	mov    WORD PTR [rcx-0x58],ds
   14000c1a4:	72 0e                	jb     0x14000c1b4
   14000c1a6:	f9                   	stc
   14000c1a7:	16                   	(bad)
   14000c1a8:	7c e1                	jl     0x14000c18b
   14000c1aa:	e8 c8 67 ff b7       	call   0xf8002977
   14000c1af:	3f                   	(bad)
   14000c1b0:	f6                   	.byte 0xf6
   14000c1b1:	78                   	.byte 0x78
